
ctarget:     file format elf64-x86-64


Disassembly of section .init:

0000000000400b58 <_init>:
  400b58:	48 83 ec 08          	sub    $0x8,%rsp
  400b5c:	e8 5b 02 00 00       	callq  400dbc <call_gmon_start>
  400b61:	e8 ea 02 00 00       	callq  400e50 <frame_dummy>
  400b66:	e8 a5 1d 00 00       	callq  402910 <__do_global_ctors_aux>
  400b6b:	48 83 c4 08          	add    $0x8,%rsp
  400b6f:	c3                   	retq   

Disassembly of section .plt:

0000000000400b70 <printf@plt-0x10>:
  400b70:	ff 35 9a 2e 20 00    	pushq  0x202e9a(%rip)        # 603a10 <_GLOBAL_OFFSET_TABLE_+0x8>
  400b76:	ff 25 9c 2e 20 00    	jmpq   *0x202e9c(%rip)        # 603a18 <_GLOBAL_OFFSET_TABLE_+0x10>
  400b7c:	0f 1f 40 00          	nopl   0x0(%rax)

0000000000400b80 <printf@plt>:
  400b80:	ff 25 9a 2e 20 00    	jmpq   *0x202e9a(%rip)        # 603a20 <_GLOBAL_OFFSET_TABLE_+0x18>
  400b86:	68 00 00 00 00       	pushq  $0x0
  400b8b:	e9 e0 ff ff ff       	jmpq   400b70 <_init+0x18>

0000000000400b90 <memset@plt>:
  400b90:	ff 25 92 2e 20 00    	jmpq   *0x202e92(%rip)        # 603a28 <_GLOBAL_OFFSET_TABLE_+0x20>
  400b96:	68 01 00 00 00       	pushq  $0x1
  400b9b:	e9 d0 ff ff ff       	jmpq   400b70 <_init+0x18>

0000000000400ba0 <close@plt>:
  400ba0:	ff 25 8a 2e 20 00    	jmpq   *0x202e8a(%rip)        # 603a30 <_GLOBAL_OFFSET_TABLE_+0x28>
  400ba6:	68 02 00 00 00       	pushq  $0x2
  400bab:	e9 c0 ff ff ff       	jmpq   400b70 <_init+0x18>

0000000000400bb0 <gethostbyname@plt>:
  400bb0:	ff 25 82 2e 20 00    	jmpq   *0x202e82(%rip)        # 603a38 <_GLOBAL_OFFSET_TABLE_+0x30>
  400bb6:	68 03 00 00 00       	pushq  $0x3
  400bbb:	e9 b0 ff ff ff       	jmpq   400b70 <_init+0x18>

0000000000400bc0 <puts@plt>:
  400bc0:	ff 25 7a 2e 20 00    	jmpq   *0x202e7a(%rip)        # 603a40 <_GLOBAL_OFFSET_TABLE_+0x38>
  400bc6:	68 04 00 00 00       	pushq  $0x4
  400bcb:	e9 a0 ff ff ff       	jmpq   400b70 <_init+0x18>

0000000000400bd0 <__isoc99_sscanf@plt>:
  400bd0:	ff 25 72 2e 20 00    	jmpq   *0x202e72(%rip)        # 603a48 <_GLOBAL_OFFSET_TABLE_+0x40>
  400bd6:	68 05 00 00 00       	pushq  $0x5
  400bdb:	e9 90 ff ff ff       	jmpq   400b70 <_init+0x18>

0000000000400be0 <exit@plt>:
  400be0:	ff 25 6a 2e 20 00    	jmpq   *0x202e6a(%rip)        # 603a50 <_GLOBAL_OFFSET_TABLE_+0x48>
  400be6:	68 06 00 00 00       	pushq  $0x6
  400beb:	e9 80 ff ff ff       	jmpq   400b70 <_init+0x18>

0000000000400bf0 <strcasecmp@plt>:
  400bf0:	ff 25 62 2e 20 00    	jmpq   *0x202e62(%rip)        # 603a58 <_GLOBAL_OFFSET_TABLE_+0x50>
  400bf6:	68 07 00 00 00       	pushq  $0x7
  400bfb:	e9 70 ff ff ff       	jmpq   400b70 <_init+0x18>

0000000000400c00 <getopt@plt>:
  400c00:	ff 25 5a 2e 20 00    	jmpq   *0x202e5a(%rip)        # 603a60 <_GLOBAL_OFFSET_TABLE_+0x58>
  400c06:	68 08 00 00 00       	pushq  $0x8
  400c0b:	e9 60 ff ff ff       	jmpq   400b70 <_init+0x18>

0000000000400c10 <read@plt>:
  400c10:	ff 25 52 2e 20 00    	jmpq   *0x202e52(%rip)        # 603a68 <_GLOBAL_OFFSET_TABLE_+0x60>
  400c16:	68 09 00 00 00       	pushq  $0x9
  400c1b:	e9 50 ff ff ff       	jmpq   400b70 <_init+0x18>

0000000000400c20 <strncmp@plt>:
  400c20:	ff 25 4a 2e 20 00    	jmpq   *0x202e4a(%rip)        # 603a70 <_GLOBAL_OFFSET_TABLE_+0x68>
  400c26:	68 0a 00 00 00       	pushq  $0xa
  400c2b:	e9 40 ff ff ff       	jmpq   400b70 <_init+0x18>

0000000000400c30 <fopen@plt>:
  400c30:	ff 25 42 2e 20 00    	jmpq   *0x202e42(%rip)        # 603a78 <_GLOBAL_OFFSET_TABLE_+0x70>
  400c36:	68 0b 00 00 00       	pushq  $0xb
  400c3b:	e9 30 ff ff ff       	jmpq   400b70 <_init+0x18>

0000000000400c40 <__libc_start_main@plt>:
  400c40:	ff 25 3a 2e 20 00    	jmpq   *0x202e3a(%rip)        # 603a80 <_GLOBAL_OFFSET_TABLE_+0x78>
  400c46:	68 0c 00 00 00       	pushq  $0xc
  400c4b:	e9 20 ff ff ff       	jmpq   400b70 <_init+0x18>

0000000000400c50 <srandom@plt>:
  400c50:	ff 25 32 2e 20 00    	jmpq   *0x202e32(%rip)        # 603a88 <_GLOBAL_OFFSET_TABLE_+0x80>
  400c56:	68 0d 00 00 00       	pushq  $0xd
  400c5b:	e9 10 ff ff ff       	jmpq   400b70 <_init+0x18>

0000000000400c60 <_IO_getc@plt>:
  400c60:	ff 25 2a 2e 20 00    	jmpq   *0x202e2a(%rip)        # 603a90 <_GLOBAL_OFFSET_TABLE_+0x88>
  400c66:	68 0e 00 00 00       	pushq  $0xe
  400c6b:	e9 00 ff ff ff       	jmpq   400b70 <_init+0x18>

0000000000400c70 <bcopy@plt>:
  400c70:	ff 25 22 2e 20 00    	jmpq   *0x202e22(%rip)        # 603a98 <_GLOBAL_OFFSET_TABLE_+0x90>
  400c76:	68 0f 00 00 00       	pushq  $0xf
  400c7b:	e9 f0 fe ff ff       	jmpq   400b70 <_init+0x18>

0000000000400c80 <sprintf@plt>:
  400c80:	ff 25 1a 2e 20 00    	jmpq   *0x202e1a(%rip)        # 603aa0 <_GLOBAL_OFFSET_TABLE_+0x98>
  400c86:	68 10 00 00 00       	pushq  $0x10
  400c8b:	e9 e0 fe ff ff       	jmpq   400b70 <_init+0x18>

0000000000400c90 <strtol@plt>:
  400c90:	ff 25 12 2e 20 00    	jmpq   *0x202e12(%rip)        # 603aa8 <_GLOBAL_OFFSET_TABLE_+0xa0>
  400c96:	68 11 00 00 00       	pushq  $0x11
  400c9b:	e9 d0 fe ff ff       	jmpq   400b70 <_init+0x18>

0000000000400ca0 <connect@plt>:
  400ca0:	ff 25 0a 2e 20 00    	jmpq   *0x202e0a(%rip)        # 603ab0 <_GLOBAL_OFFSET_TABLE_+0xa8>
  400ca6:	68 12 00 00 00       	pushq  $0x12
  400cab:	e9 c0 fe ff ff       	jmpq   400b70 <_init+0x18>

0000000000400cb0 <gethostname@plt>:
  400cb0:	ff 25 02 2e 20 00    	jmpq   *0x202e02(%rip)        # 603ab8 <_GLOBAL_OFFSET_TABLE_+0xb0>
  400cb6:	68 13 00 00 00       	pushq  $0x13
  400cbb:	e9 b0 fe ff ff       	jmpq   400b70 <_init+0x18>

0000000000400cc0 <memcpy@plt>:
  400cc0:	ff 25 fa 2d 20 00    	jmpq   *0x202dfa(%rip)        # 603ac0 <_GLOBAL_OFFSET_TABLE_+0xb8>
  400cc6:	68 14 00 00 00       	pushq  $0x14
  400ccb:	e9 a0 fe ff ff       	jmpq   400b70 <_init+0x18>

0000000000400cd0 <signal@plt>:
  400cd0:	ff 25 f2 2d 20 00    	jmpq   *0x202df2(%rip)        # 603ac8 <_GLOBAL_OFFSET_TABLE_+0xc0>
  400cd6:	68 15 00 00 00       	pushq  $0x15
  400cdb:	e9 90 fe ff ff       	jmpq   400b70 <_init+0x18>

0000000000400ce0 <socket@plt>:
  400ce0:	ff 25 ea 2d 20 00    	jmpq   *0x202dea(%rip)        # 603ad0 <_GLOBAL_OFFSET_TABLE_+0xc8>
  400ce6:	68 16 00 00 00       	pushq  $0x16
  400ceb:	e9 80 fe ff ff       	jmpq   400b70 <_init+0x18>

0000000000400cf0 <alarm@plt>:
  400cf0:	ff 25 e2 2d 20 00    	jmpq   *0x202de2(%rip)        # 603ad8 <_GLOBAL_OFFSET_TABLE_+0xd0>
  400cf6:	68 17 00 00 00       	pushq  $0x17
  400cfb:	e9 70 fe ff ff       	jmpq   400b70 <_init+0x18>

0000000000400d00 <__errno_location@plt>:
  400d00:	ff 25 da 2d 20 00    	jmpq   *0x202dda(%rip)        # 603ae0 <_GLOBAL_OFFSET_TABLE_+0xd8>
  400d06:	68 18 00 00 00       	pushq  $0x18
  400d0b:	e9 60 fe ff ff       	jmpq   400b70 <_init+0x18>

0000000000400d10 <strcpy@plt>:
  400d10:	ff 25 d2 2d 20 00    	jmpq   *0x202dd2(%rip)        # 603ae8 <_GLOBAL_OFFSET_TABLE_+0xe0>
  400d16:	68 19 00 00 00       	pushq  $0x19
  400d1b:	e9 50 fe ff ff       	jmpq   400b70 <_init+0x18>

0000000000400d20 <munmap@plt>:
  400d20:	ff 25 ca 2d 20 00    	jmpq   *0x202dca(%rip)        # 603af0 <_GLOBAL_OFFSET_TABLE_+0xe8>
  400d26:	68 1a 00 00 00       	pushq  $0x1a
  400d2b:	e9 40 fe ff ff       	jmpq   400b70 <_init+0x18>

0000000000400d30 <random@plt>:
  400d30:	ff 25 c2 2d 20 00    	jmpq   *0x202dc2(%rip)        # 603af8 <_GLOBAL_OFFSET_TABLE_+0xf0>
  400d36:	68 1b 00 00 00       	pushq  $0x1b
  400d3b:	e9 30 fe ff ff       	jmpq   400b70 <_init+0x18>

0000000000400d40 <fprintf@plt>:
  400d40:	ff 25 ba 2d 20 00    	jmpq   *0x202dba(%rip)        # 603b00 <_GLOBAL_OFFSET_TABLE_+0xf8>
  400d46:	68 1c 00 00 00       	pushq  $0x1c
  400d4b:	e9 20 fe ff ff       	jmpq   400b70 <_init+0x18>

0000000000400d50 <write@plt>:
  400d50:	ff 25 b2 2d 20 00    	jmpq   *0x202db2(%rip)        # 603b08 <_GLOBAL_OFFSET_TABLE_+0x100>
  400d56:	68 1d 00 00 00       	pushq  $0x1d
  400d5b:	e9 10 fe ff ff       	jmpq   400b70 <_init+0x18>

0000000000400d60 <strtoul@plt>:
  400d60:	ff 25 aa 2d 20 00    	jmpq   *0x202daa(%rip)        # 603b10 <_GLOBAL_OFFSET_TABLE_+0x108>
  400d66:	68 1e 00 00 00       	pushq  $0x1e
  400d6b:	e9 00 fe ff ff       	jmpq   400b70 <_init+0x18>

0000000000400d70 <mmap@plt>:
  400d70:	ff 25 a2 2d 20 00    	jmpq   *0x202da2(%rip)        # 603b18 <_GLOBAL_OFFSET_TABLE_+0x110>
  400d76:	68 1f 00 00 00       	pushq  $0x1f
  400d7b:	e9 f0 fd ff ff       	jmpq   400b70 <_init+0x18>

0000000000400d80 <time@plt>:
  400d80:	ff 25 9a 2d 20 00    	jmpq   *0x202d9a(%rip)        # 603b20 <_GLOBAL_OFFSET_TABLE_+0x118>
  400d86:	68 20 00 00 00       	pushq  $0x20
  400d8b:	e9 e0 fd ff ff       	jmpq   400b70 <_init+0x18>

Disassembly of section .text:

0000000000400d90 <_start>:
  400d90:	31 ed                	xor    %ebp,%ebp
  400d92:	49 89 d1             	mov    %rdx,%r9
  400d95:	5e                   	pop    %rsi
  400d96:	48 89 e2             	mov    %rsp,%rdx
  400d99:	48 83 e4 f0          	and    $0xfffffffffffffff0,%rsp
  400d9d:	50                   	push   %rax
  400d9e:	54                   	push   %rsp
  400d9f:	49 c7 c0 70 28 40 00 	mov    $0x402870,%r8
  400da6:	48 c7 c1 80 28 40 00 	mov    $0x402880,%rcx
  400dad:	48 c7 c7 51 10 40 00 	mov    $0x401051,%rdi
  400db4:	e8 87 fe ff ff       	callq  400c40 <__libc_start_main@plt>
  400db9:	f4                   	hlt    
  400dba:	90                   	nop
  400dbb:	90                   	nop

0000000000400dbc <call_gmon_start>:
  400dbc:	48 83 ec 08          	sub    $0x8,%rsp
  400dc0:	48 8b 05 39 2c 20 00 	mov    0x202c39(%rip),%rax        # 603a00 <_DYNAMIC+0x190>
  400dc7:	48 85 c0             	test   %rax,%rax
  400dca:	74 02                	je     400dce <call_gmon_start+0x12>
  400dcc:	ff d0                	callq  *%rax
  400dce:	48 83 c4 08          	add    $0x8,%rsp
  400dd2:	c3                   	retq   
  400dd3:	90                   	nop
  400dd4:	90                   	nop
  400dd5:	90                   	nop
  400dd6:	90                   	nop
  400dd7:	90                   	nop
  400dd8:	90                   	nop
  400dd9:	90                   	nop
  400dda:	90                   	nop
  400ddb:	90                   	nop
  400ddc:	90                   	nop
  400ddd:	90                   	nop
  400dde:	90                   	nop
  400ddf:	90                   	nop

0000000000400de0 <__do_global_dtors_aux>:
  400de0:	55                   	push   %rbp
  400de1:	48 89 e5             	mov    %rsp,%rbp
  400de4:	53                   	push   %rbx
  400de5:	48 83 ec 08          	sub    $0x8,%rsp
  400de9:	80 3d 20 31 20 00 00 	cmpb   $0x0,0x203120(%rip)        # 603f10 <completed.6352>
  400df0:	75 4b                	jne    400e3d <__do_global_dtors_aux+0x5d>
  400df2:	bb 60 38 60 00       	mov    $0x603860,%ebx
  400df7:	48 8b 05 1a 31 20 00 	mov    0x20311a(%rip),%rax        # 603f18 <dtor_idx.6354>
  400dfe:	48 81 eb 58 38 60 00 	sub    $0x603858,%rbx
  400e05:	48 c1 fb 03          	sar    $0x3,%rbx
  400e09:	48 83 eb 01          	sub    $0x1,%rbx
  400e0d:	48 39 d8             	cmp    %rbx,%rax
  400e10:	73 24                	jae    400e36 <__do_global_dtors_aux+0x56>
  400e12:	66 0f 1f 44 00 00    	nopw   0x0(%rax,%rax,1)
  400e18:	48 83 c0 01          	add    $0x1,%rax
  400e1c:	48 89 05 f5 30 20 00 	mov    %rax,0x2030f5(%rip)        # 603f18 <dtor_idx.6354>
  400e23:	ff 14 c5 58 38 60 00 	callq  *0x603858(,%rax,8)
  400e2a:	48 8b 05 e7 30 20 00 	mov    0x2030e7(%rip),%rax        # 603f18 <dtor_idx.6354>
  400e31:	48 39 d8             	cmp    %rbx,%rax
  400e34:	72 e2                	jb     400e18 <__do_global_dtors_aux+0x38>
  400e36:	c6 05 d3 30 20 00 01 	movb   $0x1,0x2030d3(%rip)        # 603f10 <completed.6352>
  400e3d:	48 83 c4 08          	add    $0x8,%rsp
  400e41:	5b                   	pop    %rbx
  400e42:	c9                   	leaveq 
  400e43:	c3                   	retq   
  400e44:	66 66 66 2e 0f 1f 84 	data32 data32 nopw %cs:0x0(%rax,%rax,1)
  400e4b:	00 00 00 00 00 

0000000000400e50 <frame_dummy>:
  400e50:	48 83 3d 10 2a 20 00 	cmpq   $0x0,0x202a10(%rip)        # 603868 <__JCR_END__>
  400e57:	00 
  400e58:	55                   	push   %rbp
  400e59:	48 89 e5             	mov    %rsp,%rbp
  400e5c:	74 12                	je     400e70 <frame_dummy+0x20>
  400e5e:	b8 00 00 00 00       	mov    $0x0,%eax
  400e63:	48 85 c0             	test   %rax,%rax
  400e66:	74 08                	je     400e70 <frame_dummy+0x20>
  400e68:	bf 68 38 60 00       	mov    $0x603868,%edi
  400e6d:	c9                   	leaveq 
  400e6e:	ff e0                	jmpq   *%rax
  400e70:	c9                   	leaveq 
  400e71:	c3                   	retq   
  400e72:	90                   	nop
  400e73:	90                   	nop
  400e74:	90                   	nop
  400e75:	90                   	nop
  400e76:	90                   	nop
  400e77:	90                   	nop
  400e78:	90                   	nop
  400e79:	90                   	nop
  400e7a:	90                   	nop
  400e7b:	90                   	nop
  400e7c:	90                   	nop
  400e7d:	90                   	nop
  400e7e:	90                   	nop
  400e7f:	90                   	nop

0000000000400e80 <usage>:
  400e80:	48 83 ec 08          	sub    $0x8,%rsp
  400e84:	48 89 fe             	mov    %rdi,%rsi
  400e87:	83 3d 92 30 20 00 00 	cmpl   $0x0,0x203092(%rip)        # 603f20 <is_checker>
  400e8e:	74 39                	je     400ec9 <usage+0x49>
  400e90:	bf 70 29 40 00       	mov    $0x402970,%edi
  400e95:	b8 00 00 00 00       	mov    $0x0,%eax
  400e9a:	e8 e1 fc ff ff       	callq  400b80 <printf@plt>
  400e9f:	bf a8 29 40 00       	mov    $0x4029a8,%edi
  400ea4:	e8 17 fd ff ff       	callq  400bc0 <puts@plt>
  400ea9:	bf 20 2b 40 00       	mov    $0x402b20,%edi
  400eae:	e8 0d fd ff ff       	callq  400bc0 <puts@plt>
  400eb3:	bf d0 29 40 00       	mov    $0x4029d0,%edi
  400eb8:	e8 03 fd ff ff       	callq  400bc0 <puts@plt>
  400ebd:	bf 3a 2b 40 00       	mov    $0x402b3a,%edi
  400ec2:	e8 f9 fc ff ff       	callq  400bc0 <puts@plt>
  400ec7:	eb 2d                	jmp    400ef6 <usage+0x76>
  400ec9:	bf 56 2b 40 00       	mov    $0x402b56,%edi
  400ece:	b8 00 00 00 00       	mov    $0x0,%eax
  400ed3:	e8 a8 fc ff ff       	callq  400b80 <printf@plt>
  400ed8:	bf f8 29 40 00       	mov    $0x4029f8,%edi
  400edd:	e8 de fc ff ff       	callq  400bc0 <puts@plt>
  400ee2:	bf 20 2a 40 00       	mov    $0x402a20,%edi
  400ee7:	e8 d4 fc ff ff       	callq  400bc0 <puts@plt>
  400eec:	bf 74 2b 40 00       	mov    $0x402b74,%edi
  400ef1:	e8 ca fc ff ff       	callq  400bc0 <puts@plt>
  400ef6:	bf 00 00 00 00       	mov    $0x0,%edi
  400efb:	e8 e0 fc ff ff       	callq  400be0 <exit@plt>

0000000000400f00 <initialize_target>:
  400f00:	55                   	push   %rbp
  400f01:	53                   	push   %rbx
  400f02:	48 81 ec 08 21 00 00 	sub    $0x2108,%rsp
  400f09:	89 f3                	mov    %esi,%ebx
  400f0b:	89 3d 1f 30 20 00    	mov    %edi,0x20301f(%rip)        # 603f30 <check_level>
  400f11:	8b 3d 91 2f 20 00    	mov    0x202f91(%rip),%edi        # 603ea8 <target_id>
  400f17:	e8 2e 19 00 00       	callq  40284a <gencookie>
  400f1c:	89 05 02 30 20 00    	mov    %eax,0x203002(%rip)        # 603f24 <cookie>
  400f22:	89 c7                	mov    %eax,%edi
  400f24:	e8 21 19 00 00       	callq  40284a <gencookie>
  400f29:	89 05 f9 2f 20 00    	mov    %eax,0x202ff9(%rip)        # 603f28 <authkey>
  400f2f:	8b 3d 73 2f 20 00    	mov    0x202f73(%rip),%edi        # 603ea8 <target_id>
  400f35:	83 c7 01             	add    $0x1,%edi
  400f38:	e8 13 fd ff ff       	callq  400c50 <srandom@plt>
  400f3d:	e8 ee fd ff ff       	callq  400d30 <random@plt>
  400f42:	89 c7                	mov    %eax,%edi
  400f44:	e8 df 02 00 00       	callq  401228 <scramble>
  400f49:	89 c5                	mov    %eax,%ebp
  400f4b:	b8 00 00 00 00       	mov    $0x0,%eax
  400f50:	85 db                	test   %ebx,%ebx
  400f52:	74 16                	je     400f6a <initialize_target+0x6a>
  400f54:	bf 00 00 00 00       	mov    $0x0,%edi
  400f59:	e8 22 fe ff ff       	callq  400d80 <time@plt>
  400f5e:	89 c7                	mov    %eax,%edi
  400f60:	e8 eb fc ff ff       	callq  400c50 <srandom@plt>
  400f65:	e8 c6 fd ff ff       	callq  400d30 <random@plt>
  400f6a:	01 e8                	add    %ebp,%eax
  400f6c:	0f b7 c0             	movzwl %ax,%eax
  400f6f:	48 8d 04 c5 00 01 00 	lea    0x100(,%rax,8),%rax
  400f76:	00 
  400f77:	48 89 05 3a 2f 20 00 	mov    %rax,0x202f3a(%rip)        # 603eb8 <buf_offset>
  400f7e:	c6 05 df 3b 20 00 63 	movb   $0x63,0x203bdf(%rip)        # 604b64 <target_prefix>
  400f85:	83 3d 34 2f 20 00 00 	cmpl   $0x0,0x202f34(%rip)        # 603ec0 <notify>
  400f8c:	0f 84 b5 00 00 00    	je     401047 <initialize_target+0x147>
  400f92:	83 3d 87 2f 20 00 00 	cmpl   $0x0,0x202f87(%rip)        # 603f20 <is_checker>
  400f99:	0f 85 a8 00 00 00    	jne    401047 <initialize_target+0x147>
  400f9f:	48 8d bc 24 00 20 00 	lea    0x2000(%rsp),%rdi
  400fa6:	00 
  400fa7:	be 00 01 00 00       	mov    $0x100,%esi
  400fac:	e8 ff fc ff ff       	callq  400cb0 <gethostname@plt>
  400fb1:	85 c0                	test   %eax,%eax
  400fb3:	75 1b                	jne    400fd0 <initialize_target+0xd0>
  400fb5:	48 8b 3d c4 2b 20 00 	mov    0x202bc4(%rip),%rdi        # 603b80 <host_table>
  400fbc:	bb 88 3b 60 00       	mov    $0x603b88,%ebx
  400fc1:	48 8d ac 24 00 20 00 	lea    0x2000(%rsp),%rbp
  400fc8:	00 
  400fc9:	48 85 ff             	test   %rdi,%rdi
  400fcc:	75 16                	jne    400fe4 <initialize_target+0xe4>
  400fce:	eb 56                	jmp    401026 <initialize_target+0x126>
  400fd0:	bf 50 2a 40 00       	mov    $0x402a50,%edi
  400fd5:	e8 e6 fb ff ff       	callq  400bc0 <puts@plt>
  400fda:	bf 08 00 00 00       	mov    $0x8,%edi
  400fdf:	e8 fc fb ff ff       	callq  400be0 <exit@plt>
  400fe4:	48 89 ee             	mov    %rbp,%rsi
  400fe7:	e8 04 fc ff ff       	callq  400bf0 <strcasecmp@plt>
  400fec:	85 c0                	test   %eax,%eax
  400fee:	74 0e                	je     400ffe <initialize_target+0xfe>
  400ff0:	48 8b 3b             	mov    (%rbx),%rdi
  400ff3:	48 83 c3 08          	add    $0x8,%rbx
  400ff7:	48 85 ff             	test   %rdi,%rdi
  400ffa:	75 e8                	jne    400fe4 <initialize_target+0xe4>
  400ffc:	eb 28                	jmp    401026 <initialize_target+0x126>
  400ffe:	48 89 e7             	mov    %rsp,%rdi
  401001:	e8 0a 0e 00 00       	callq  401e10 <init_driver>
  401006:	85 c0                	test   %eax,%eax
  401008:	79 3d                	jns    401047 <initialize_target+0x147>
  40100a:	48 89 e6             	mov    %rsp,%rsi
  40100d:	bf 88 2a 40 00       	mov    $0x402a88,%edi
  401012:	b8 00 00 00 00       	mov    $0x0,%eax
  401017:	e8 64 fb ff ff       	callq  400b80 <printf@plt>
  40101c:	bf 08 00 00 00       	mov    $0x8,%edi
  401021:	e8 ba fb ff ff       	callq  400be0 <exit@plt>
  401026:	48 8d b4 24 00 20 00 	lea    0x2000(%rsp),%rsi
  40102d:	00 
  40102e:	bf b0 2a 40 00       	mov    $0x402ab0,%edi
  401033:	b8 00 00 00 00       	mov    $0x0,%eax
  401038:	e8 43 fb ff ff       	callq  400b80 <printf@plt>
  40103d:	bf 08 00 00 00       	mov    $0x8,%edi
  401042:	e8 99 fb ff ff       	callq  400be0 <exit@plt>
  401047:	48 81 c4 08 21 00 00 	add    $0x2108,%rsp
  40104e:	5b                   	pop    %rbx
  40104f:	5d                   	pop    %rbp
  401050:	c3                   	retq   

0000000000401051 <main>:
  401051:	41 57                	push   %r15
  401053:	41 56                	push   %r14
  401055:	41 55                	push   %r13
  401057:	41 54                	push   %r12
  401059:	55                   	push   %rbp
  40105a:	53                   	push   %rbx
  40105b:	48 83 ec 08          	sub    $0x8,%rsp
  40105f:	41 89 fc             	mov    %edi,%r12d
  401062:	48 89 f3             	mov    %rsi,%rbx
  401065:	be be 1b 40 00       	mov    $0x401bbe,%esi
  40106a:	bf 0b 00 00 00       	mov    $0xb,%edi
  40106f:	e8 5c fc ff ff       	callq  400cd0 <signal@plt>
  401074:	be 0e 1c 40 00       	mov    $0x401c0e,%esi
  401079:	bf 07 00 00 00       	mov    $0x7,%edi
  40107e:	e8 4d fc ff ff       	callq  400cd0 <signal@plt>
  401083:	be 6e 1b 40 00       	mov    $0x401b6e,%esi
  401088:	bf 04 00 00 00       	mov    $0x4,%edi
  40108d:	e8 3e fc ff ff       	callq  400cd0 <signal@plt>
  401092:	bd 8d 2b 40 00       	mov    $0x402b8d,%ebp
  401097:	83 3d 82 2e 20 00 00 	cmpl   $0x0,0x202e82(%rip)        # 603f20 <is_checker>
  40109e:	74 1e                	je     4010be <main+0x6d>
  4010a0:	be 1e 1b 40 00       	mov    $0x401b1e,%esi
  4010a5:	bf 0e 00 00 00       	mov    $0xe,%edi
  4010aa:	e8 21 fc ff ff       	callq  400cd0 <signal@plt>
  4010af:	bf 05 00 00 00       	mov    $0x5,%edi
  4010b4:	e8 37 fc ff ff       	callq  400cf0 <alarm@plt>
  4010b9:	bd 92 2b 40 00       	mov    $0x402b92,%ebp
  4010be:	48 8b 05 1b 2e 20 00 	mov    0x202e1b(%rip),%rax        # 603ee0 <stdin@@GLIBC_2.2.5>
  4010c5:	48 89 05 6c 2e 20 00 	mov    %rax,0x202e6c(%rip)        # 603f38 <infile>
  4010cc:	41 be 00 00 00 00    	mov    $0x0,%r14d
  4010d2:	41 bf 00 00 00 00    	mov    $0x0,%r15d
  4010d8:	41 bd d8 2b 40 00    	mov    $0x402bd8,%r13d
  4010de:	e9 bd 00 00 00       	jmpq   4011a0 <main+0x14f>
  4010e3:	8d 50 9f             	lea    -0x61(%rax),%edx
  4010e6:	80 fa 10             	cmp    $0x10,%dl
  4010e9:	0f 87 97 00 00 00    	ja     401186 <main+0x135>
  4010ef:	0f b6 d2             	movzbl %dl,%edx
  4010f2:	41 ff 64 d5 00       	jmpq   *0x0(%r13,%rdx,8)
  4010f7:	48 8b 3b             	mov    (%rbx),%rdi
  4010fa:	e8 81 fd ff ff       	callq  400e80 <usage>
  4010ff:	90                   	nop
  401100:	e9 9b 00 00 00       	jmpq   4011a0 <main+0x14f>
  401105:	be 7e 2e 40 00       	mov    $0x402e7e,%esi
  40110a:	48 8b 3d ef 2d 20 00 	mov    0x202def(%rip),%rdi        # 603f00 <optarg@@GLIBC_2.2.5>
  401111:	e8 1a fb ff ff       	callq  400c30 <fopen@plt>
  401116:	48 89 05 1b 2e 20 00 	mov    %rax,0x202e1b(%rip)        # 603f38 <infile>
  40111d:	48 85 c0             	test   %rax,%rax
  401120:	75 7e                	jne    4011a0 <main+0x14f>
  401122:	48 8b 15 d7 2d 20 00 	mov    0x202dd7(%rip),%rdx        # 603f00 <optarg@@GLIBC_2.2.5>
  401129:	be 9a 2b 40 00       	mov    $0x402b9a,%esi
  40112e:	48 8b 3d d3 2d 20 00 	mov    0x202dd3(%rip),%rdi        # 603f08 <stderr@@GLIBC_2.2.5>
  401135:	e8 06 fc ff ff       	callq  400d40 <fprintf@plt>
  40113a:	b8 01 00 00 00       	mov    $0x1,%eax
  40113f:	e9 d3 00 00 00       	jmpq   401217 <main+0x1c6>
  401144:	ba 10 00 00 00       	mov    $0x10,%edx
  401149:	be 00 00 00 00       	mov    $0x0,%esi
  40114e:	48 8b 3d ab 2d 20 00 	mov    0x202dab(%rip),%rdi        # 603f00 <optarg@@GLIBC_2.2.5>
  401155:	e8 06 fc ff ff       	callq  400d60 <strtoul@plt>
  40115a:	41 89 c7             	mov    %eax,%r15d
  40115d:	eb 41                	jmp    4011a0 <main+0x14f>
  40115f:	ba 0a 00 00 00       	mov    $0xa,%edx
  401164:	be 00 00 00 00       	mov    $0x0,%esi
  401169:	48 8b 3d 90 2d 20 00 	mov    0x202d90(%rip),%rdi        # 603f00 <optarg@@GLIBC_2.2.5>
  401170:	e8 1b fb ff ff       	callq  400c90 <strtol@plt>
  401175:	41 89 c6             	mov    %eax,%r14d
  401178:	eb 26                	jmp    4011a0 <main+0x14f>
  40117a:	c7 05 3c 2d 20 00 00 	movl   $0x0,0x202d3c(%rip)        # 603ec0 <notify>
  401181:	00 00 00 
  401184:	eb 1a                	jmp    4011a0 <main+0x14f>
  401186:	0f be f0             	movsbl %al,%esi
  401189:	bf b7 2b 40 00       	mov    $0x402bb7,%edi
  40118e:	b8 00 00 00 00       	mov    $0x0,%eax
  401193:	e8 e8 f9 ff ff       	callq  400b80 <printf@plt>
  401198:	48 8b 3b             	mov    (%rbx),%rdi
  40119b:	e8 e0 fc ff ff       	callq  400e80 <usage>
  4011a0:	48 89 ea             	mov    %rbp,%rdx
  4011a3:	48 89 de             	mov    %rbx,%rsi
  4011a6:	44 89 e7             	mov    %r12d,%edi
  4011a9:	e8 52 fa ff ff       	callq  400c00 <getopt@plt>
  4011ae:	3c ff                	cmp    $0xff,%al
  4011b0:	0f 85 2d ff ff ff    	jne    4010e3 <main+0x92>
  4011b6:	be 00 00 00 00       	mov    $0x0,%esi
  4011bb:	44 89 f7             	mov    %r14d,%edi
  4011be:	e8 3d fd ff ff       	callq  400f00 <initialize_target>
  4011c3:	83 3d 56 2d 20 00 00 	cmpl   $0x0,0x202d56(%rip)        # 603f20 <is_checker>
  4011ca:	74 25                	je     4011f1 <main+0x1a0>
  4011cc:	44 3b 3d 55 2d 20 00 	cmp    0x202d55(%rip),%r15d        # 603f28 <authkey>
  4011d3:	74 1c                	je     4011f1 <main+0x1a0>
  4011d5:	44 89 fe             	mov    %r15d,%esi
  4011d8:	bf f0 2a 40 00       	mov    $0x402af0,%edi
  4011dd:	b8 00 00 00 00       	mov    $0x0,%eax
  4011e2:	e8 99 f9 ff ff       	callq  400b80 <printf@plt>
  4011e7:	b8 00 00 00 00       	mov    $0x0,%eax
  4011ec:	e8 2f 06 00 00       	callq  401820 <check_fail>
  4011f1:	8b 35 2d 2d 20 00    	mov    0x202d2d(%rip),%esi        # 603f24 <cookie>
  4011f7:	bf ca 2b 40 00       	mov    $0x402bca,%edi
  4011fc:	b8 00 00 00 00       	mov    $0x0,%eax
  401201:	e8 7a f9 ff ff       	callq  400b80 <printf@plt>
  401206:	48 8b 3d ab 2c 20 00 	mov    0x202cab(%rip),%rdi        # 603eb8 <buf_offset>
  40120d:	e8 c0 06 00 00       	callq  4018d2 <stable_launch>
  401212:	b8 00 00 00 00       	mov    $0x0,%eax
  401217:	48 83 c4 08          	add    $0x8,%rsp
  40121b:	5b                   	pop    %rbx
  40121c:	5d                   	pop    %rbp
  40121d:	41 5c                	pop    %r12
  40121f:	41 5d                	pop    %r13
  401221:	41 5e                	pop    %r14
  401223:	41 5f                	pop    %r15
  401225:	c3                   	retq   
  401226:	90                   	nop
  401227:	90                   	nop

0000000000401228 <scramble>:
  401228:	b8 00 00 00 00       	mov    $0x0,%eax
  40122d:	89 c2                	mov    %eax,%edx
  40122f:	89 7c 94 c8          	mov    %edi,-0x38(%rsp,%rdx,4)
  401233:	83 c0 01             	add    $0x1,%eax
  401236:	81 c7 5f 38 00 00    	add    $0x385f,%edi
  40123c:	83 f8 0a             	cmp    $0xa,%eax
  40123f:	75 ec                	jne    40122d <scramble+0x5>
  401241:	8b 44 24 d8          	mov    -0x28(%rsp),%eax
  401245:	69 c0 c9 e5 00 00    	imul   $0xe5c9,%eax,%eax
  40124b:	89 44 24 d8          	mov    %eax,-0x28(%rsp)
  40124f:	8b 44 24 d4          	mov    -0x2c(%rsp),%eax
  401253:	69 c0 58 bc 00 00    	imul   $0xbc58,%eax,%eax
  401259:	89 44 24 d4          	mov    %eax,-0x2c(%rsp)
  40125d:	8b 44 24 e4          	mov    -0x1c(%rsp),%eax
  401261:	69 c0 2d a3 00 00    	imul   $0xa32d,%eax,%eax
  401267:	89 44 24 e4          	mov    %eax,-0x1c(%rsp)
  40126b:	8b 44 24 ec          	mov    -0x14(%rsp),%eax
  40126f:	69 c0 24 b9 00 00    	imul   $0xb924,%eax,%eax
  401275:	89 44 24 ec          	mov    %eax,-0x14(%rsp)
  401279:	8b 44 24 cc          	mov    -0x34(%rsp),%eax
  40127d:	69 c0 8b a2 00 00    	imul   $0xa28b,%eax,%eax
  401283:	89 44 24 cc          	mov    %eax,-0x34(%rsp)
  401287:	8b 44 24 e8          	mov    -0x18(%rsp),%eax
  40128b:	69 c0 6b 05 00 00    	imul   $0x56b,%eax,%eax
  401291:	89 44 24 e8          	mov    %eax,-0x18(%rsp)
  401295:	8b 44 24 dc          	mov    -0x24(%rsp),%eax
  401299:	69 c0 91 b5 00 00    	imul   $0xb591,%eax,%eax
  40129f:	89 44 24 dc          	mov    %eax,-0x24(%rsp)
  4012a3:	8b 44 24 d0          	mov    -0x30(%rsp),%eax
  4012a7:	69 c0 4b 44 00 00    	imul   $0x444b,%eax,%eax
  4012ad:	89 44 24 d0          	mov    %eax,-0x30(%rsp)
  4012b1:	8b 44 24 c8          	mov    -0x38(%rsp),%eax
  4012b5:	69 c0 20 9d 00 00    	imul   $0x9d20,%eax,%eax
  4012bb:	89 44 24 c8          	mov    %eax,-0x38(%rsp)
  4012bf:	8b 44 24 dc          	mov    -0x24(%rsp),%eax
  4012c3:	69 c0 dd 82 00 00    	imul   $0x82dd,%eax,%eax
  4012c9:	89 44 24 dc          	mov    %eax,-0x24(%rsp)
  4012cd:	8b 44 24 cc          	mov    -0x34(%rsp),%eax
  4012d1:	69 c0 ed ed 00 00    	imul   $0xeded,%eax,%eax
  4012d7:	89 44 24 cc          	mov    %eax,-0x34(%rsp)
  4012db:	8b 44 24 e8          	mov    -0x18(%rsp),%eax
  4012df:	69 c0 a3 75 00 00    	imul   $0x75a3,%eax,%eax
  4012e5:	89 44 24 e8          	mov    %eax,-0x18(%rsp)
  4012e9:	8b 44 24 ec          	mov    -0x14(%rsp),%eax
  4012ed:	69 c0 31 cd 00 00    	imul   $0xcd31,%eax,%eax
  4012f3:	89 44 24 ec          	mov    %eax,-0x14(%rsp)
  4012f7:	8b 44 24 d0          	mov    -0x30(%rsp),%eax
  4012fb:	69 c0 5c 76 00 00    	imul   $0x765c,%eax,%eax
  401301:	89 44 24 d0          	mov    %eax,-0x30(%rsp)
  401305:	8b 44 24 e8          	mov    -0x18(%rsp),%eax
  401309:	69 c0 b9 f1 00 00    	imul   $0xf1b9,%eax,%eax
  40130f:	89 44 24 e8          	mov    %eax,-0x18(%rsp)
  401313:	8b 44 24 d8          	mov    -0x28(%rsp),%eax
  401317:	69 c0 cd 04 00 00    	imul   $0x4cd,%eax,%eax
  40131d:	89 44 24 d8          	mov    %eax,-0x28(%rsp)
  401321:	8b 44 24 dc          	mov    -0x24(%rsp),%eax
  401325:	69 c0 7a 04 00 00    	imul   $0x47a,%eax,%eax
  40132b:	89 44 24 dc          	mov    %eax,-0x24(%rsp)
  40132f:	8b 44 24 d8          	mov    -0x28(%rsp),%eax
  401333:	69 c0 37 bd 00 00    	imul   $0xbd37,%eax,%eax
  401339:	89 44 24 d8          	mov    %eax,-0x28(%rsp)
  40133d:	8b 44 24 e0          	mov    -0x20(%rsp),%eax
  401341:	69 c0 0e c8 00 00    	imul   $0xc80e,%eax,%eax
  401347:	89 44 24 e0          	mov    %eax,-0x20(%rsp)
  40134b:	8b 44 24 cc          	mov    -0x34(%rsp),%eax
  40134f:	69 c0 3d 60 00 00    	imul   $0x603d,%eax,%eax
  401355:	89 44 24 cc          	mov    %eax,-0x34(%rsp)
  401359:	8b 44 24 d0          	mov    -0x30(%rsp),%eax
  40135d:	69 c0 bb 1c 00 00    	imul   $0x1cbb,%eax,%eax
  401363:	89 44 24 d0          	mov    %eax,-0x30(%rsp)
  401367:	8b 44 24 d8          	mov    -0x28(%rsp),%eax
  40136b:	69 c0 b9 e3 00 00    	imul   $0xe3b9,%eax,%eax
  401371:	89 44 24 d8          	mov    %eax,-0x28(%rsp)
  401375:	8b 44 24 d0          	mov    -0x30(%rsp),%eax
  401379:	69 c0 1f fb 00 00    	imul   $0xfb1f,%eax,%eax
  40137f:	89 44 24 d0          	mov    %eax,-0x30(%rsp)
  401383:	8b 44 24 e0          	mov    -0x20(%rsp),%eax
  401387:	69 c0 ac 9d 00 00    	imul   $0x9dac,%eax,%eax
  40138d:	89 44 24 e0          	mov    %eax,-0x20(%rsp)
  401391:	8b 44 24 dc          	mov    -0x24(%rsp),%eax
  401395:	69 c0 50 9c 00 00    	imul   $0x9c50,%eax,%eax
  40139b:	89 44 24 dc          	mov    %eax,-0x24(%rsp)
  40139f:	8b 44 24 d8          	mov    -0x28(%rsp),%eax
  4013a3:	69 c0 fb fe 00 00    	imul   $0xfefb,%eax,%eax
  4013a9:	89 44 24 d8          	mov    %eax,-0x28(%rsp)
  4013ad:	8b 44 24 d8          	mov    -0x28(%rsp),%eax
  4013b1:	69 c0 4e 90 00 00    	imul   $0x904e,%eax,%eax
  4013b7:	89 44 24 d8          	mov    %eax,-0x28(%rsp)
  4013bb:	8b 44 24 d0          	mov    -0x30(%rsp),%eax
  4013bf:	69 c0 de 7b 00 00    	imul   $0x7bde,%eax,%eax
  4013c5:	89 44 24 d0          	mov    %eax,-0x30(%rsp)
  4013c9:	8b 44 24 e8          	mov    -0x18(%rsp),%eax
  4013cd:	69 c0 52 6f 00 00    	imul   $0x6f52,%eax,%eax
  4013d3:	89 44 24 e8          	mov    %eax,-0x18(%rsp)
  4013d7:	8b 44 24 dc          	mov    -0x24(%rsp),%eax
  4013db:	69 c0 ee 29 00 00    	imul   $0x29ee,%eax,%eax
  4013e1:	89 44 24 dc          	mov    %eax,-0x24(%rsp)
  4013e5:	8b 44 24 cc          	mov    -0x34(%rsp),%eax
  4013e9:	69 c0 da 58 00 00    	imul   $0x58da,%eax,%eax
  4013ef:	89 44 24 cc          	mov    %eax,-0x34(%rsp)
  4013f3:	8b 44 24 c8          	mov    -0x38(%rsp),%eax
  4013f7:	69 c0 8d 38 00 00    	imul   $0x388d,%eax,%eax
  4013fd:	89 44 24 c8          	mov    %eax,-0x38(%rsp)
  401401:	8b 44 24 c8          	mov    -0x38(%rsp),%eax
  401405:	69 c0 e0 ef 00 00    	imul   $0xefe0,%eax,%eax
  40140b:	89 44 24 c8          	mov    %eax,-0x38(%rsp)
  40140f:	8b 44 24 c8          	mov    -0x38(%rsp),%eax
  401413:	69 c0 fc 04 00 00    	imul   $0x4fc,%eax,%eax
  401419:	89 44 24 c8          	mov    %eax,-0x38(%rsp)
  40141d:	8b 44 24 cc          	mov    -0x34(%rsp),%eax
  401421:	69 c0 20 6c 00 00    	imul   $0x6c20,%eax,%eax
  401427:	89 44 24 cc          	mov    %eax,-0x34(%rsp)
  40142b:	8b 44 24 e8          	mov    -0x18(%rsp),%eax
  40142f:	69 c0 87 22 00 00    	imul   $0x2287,%eax,%eax
  401435:	89 44 24 e8          	mov    %eax,-0x18(%rsp)
  401439:	8b 44 24 d0          	mov    -0x30(%rsp),%eax
  40143d:	69 c0 e2 ca 00 00    	imul   $0xcae2,%eax,%eax
  401443:	89 44 24 d0          	mov    %eax,-0x30(%rsp)
  401447:	8b 44 24 dc          	mov    -0x24(%rsp),%eax
  40144b:	69 c0 28 5b 00 00    	imul   $0x5b28,%eax,%eax
  401451:	89 44 24 dc          	mov    %eax,-0x24(%rsp)
  401455:	8b 44 24 dc          	mov    -0x24(%rsp),%eax
  401459:	69 c0 44 2e 00 00    	imul   $0x2e44,%eax,%eax
  40145f:	89 44 24 dc          	mov    %eax,-0x24(%rsp)
  401463:	8b 44 24 ec          	mov    -0x14(%rsp),%eax
  401467:	69 c0 41 5e 00 00    	imul   $0x5e41,%eax,%eax
  40146d:	89 44 24 ec          	mov    %eax,-0x14(%rsp)
  401471:	8b 44 24 e0          	mov    -0x20(%rsp),%eax
  401475:	69 c0 5e 19 00 00    	imul   $0x195e,%eax,%eax
  40147b:	89 44 24 e0          	mov    %eax,-0x20(%rsp)
  40147f:	8b 44 24 ec          	mov    -0x14(%rsp),%eax
  401483:	69 c0 d3 54 00 00    	imul   $0x54d3,%eax,%eax
  401489:	89 44 24 ec          	mov    %eax,-0x14(%rsp)
  40148d:	8b 44 24 e4          	mov    -0x1c(%rsp),%eax
  401491:	69 c0 db d1 00 00    	imul   $0xd1db,%eax,%eax
  401497:	89 44 24 e4          	mov    %eax,-0x1c(%rsp)
  40149b:	8b 44 24 ec          	mov    -0x14(%rsp),%eax
  40149f:	69 c0 2d 07 00 00    	imul   $0x72d,%eax,%eax
  4014a5:	89 44 24 ec          	mov    %eax,-0x14(%rsp)
  4014a9:	8b 44 24 ec          	mov    -0x14(%rsp),%eax
  4014ad:	69 c0 eb c2 00 00    	imul   $0xc2eb,%eax,%eax
  4014b3:	89 44 24 ec          	mov    %eax,-0x14(%rsp)
  4014b7:	8b 44 24 cc          	mov    -0x34(%rsp),%eax
  4014bb:	69 c0 38 a2 00 00    	imul   $0xa238,%eax,%eax
  4014c1:	89 44 24 cc          	mov    %eax,-0x34(%rsp)
  4014c5:	8b 44 24 e4          	mov    -0x1c(%rsp),%eax
  4014c9:	69 c0 d6 5f 00 00    	imul   $0x5fd6,%eax,%eax
  4014cf:	89 44 24 e4          	mov    %eax,-0x1c(%rsp)
  4014d3:	8b 44 24 c8          	mov    -0x38(%rsp),%eax
  4014d7:	69 c0 19 79 00 00    	imul   $0x7919,%eax,%eax
  4014dd:	89 44 24 c8          	mov    %eax,-0x38(%rsp)
  4014e1:	8b 44 24 c8          	mov    -0x38(%rsp),%eax
  4014e5:	69 c0 89 d0 00 00    	imul   $0xd089,%eax,%eax
  4014eb:	89 44 24 c8          	mov    %eax,-0x38(%rsp)
  4014ef:	8b 44 24 e0          	mov    -0x20(%rsp),%eax
  4014f3:	69 c0 a4 07 00 00    	imul   $0x7a4,%eax,%eax
  4014f9:	89 44 24 e0          	mov    %eax,-0x20(%rsp)
  4014fd:	8b 44 24 d4          	mov    -0x2c(%rsp),%eax
  401501:	69 c0 4f e3 00 00    	imul   $0xe34f,%eax,%eax
  401507:	89 44 24 d4          	mov    %eax,-0x2c(%rsp)
  40150b:	8b 44 24 e4          	mov    -0x1c(%rsp),%eax
  40150f:	69 c0 86 c5 00 00    	imul   $0xc586,%eax,%eax
  401515:	89 44 24 e4          	mov    %eax,-0x1c(%rsp)
  401519:	8b 44 24 c8          	mov    -0x38(%rsp),%eax
  40151d:	69 c0 6b 30 00 00    	imul   $0x306b,%eax,%eax
  401523:	89 44 24 c8          	mov    %eax,-0x38(%rsp)
  401527:	8b 44 24 cc          	mov    -0x34(%rsp),%eax
  40152b:	69 c0 33 74 00 00    	imul   $0x7433,%eax,%eax
  401531:	89 44 24 cc          	mov    %eax,-0x34(%rsp)
  401535:	8b 44 24 e8          	mov    -0x18(%rsp),%eax
  401539:	69 c0 83 19 00 00    	imul   $0x1983,%eax,%eax
  40153f:	89 44 24 e8          	mov    %eax,-0x18(%rsp)
  401543:	8b 44 24 e8          	mov    -0x18(%rsp),%eax
  401547:	69 c0 44 29 00 00    	imul   $0x2944,%eax,%eax
  40154d:	89 44 24 e8          	mov    %eax,-0x18(%rsp)
  401551:	8b 44 24 dc          	mov    -0x24(%rsp),%eax
  401555:	69 c0 b1 2f 00 00    	imul   $0x2fb1,%eax,%eax
  40155b:	89 44 24 dc          	mov    %eax,-0x24(%rsp)
  40155f:	8b 44 24 c8          	mov    -0x38(%rsp),%eax
  401563:	69 c0 8f dc 00 00    	imul   $0xdc8f,%eax,%eax
  401569:	89 44 24 c8          	mov    %eax,-0x38(%rsp)
  40156d:	8b 44 24 d0          	mov    -0x30(%rsp),%eax
  401571:	69 c0 c8 4e 00 00    	imul   $0x4ec8,%eax,%eax
  401577:	89 44 24 d0          	mov    %eax,-0x30(%rsp)
  40157b:	8b 44 24 e4          	mov    -0x1c(%rsp),%eax
  40157f:	69 c0 b9 42 00 00    	imul   $0x42b9,%eax,%eax
  401585:	89 44 24 e4          	mov    %eax,-0x1c(%rsp)
  401589:	8b 44 24 ec          	mov    -0x14(%rsp),%eax
  40158d:	69 c0 d7 14 00 00    	imul   $0x14d7,%eax,%eax
  401593:	89 44 24 ec          	mov    %eax,-0x14(%rsp)
  401597:	8b 44 24 e4          	mov    -0x1c(%rsp),%eax
  40159b:	69 c0 78 2d 00 00    	imul   $0x2d78,%eax,%eax
  4015a1:	89 44 24 e4          	mov    %eax,-0x1c(%rsp)
  4015a5:	8b 44 24 e0          	mov    -0x20(%rsp),%eax
  4015a9:	69 c0 b6 bf 00 00    	imul   $0xbfb6,%eax,%eax
  4015af:	89 44 24 e0          	mov    %eax,-0x20(%rsp)
  4015b3:	8b 44 24 d4          	mov    -0x2c(%rsp),%eax
  4015b7:	69 c0 63 c4 00 00    	imul   $0xc463,%eax,%eax
  4015bd:	89 44 24 d4          	mov    %eax,-0x2c(%rsp)
  4015c1:	8b 44 24 ec          	mov    -0x14(%rsp),%eax
  4015c5:	69 c0 a8 24 00 00    	imul   $0x24a8,%eax,%eax
  4015cb:	89 44 24 ec          	mov    %eax,-0x14(%rsp)
  4015cf:	8b 44 24 ec          	mov    -0x14(%rsp),%eax
  4015d3:	69 c0 e9 cc 00 00    	imul   $0xcce9,%eax,%eax
  4015d9:	89 44 24 ec          	mov    %eax,-0x14(%rsp)
  4015dd:	8b 44 24 dc          	mov    -0x24(%rsp),%eax
  4015e1:	69 c0 32 f6 00 00    	imul   $0xf632,%eax,%eax
  4015e7:	89 44 24 dc          	mov    %eax,-0x24(%rsp)
  4015eb:	8b 44 24 ec          	mov    -0x14(%rsp),%eax
  4015ef:	69 c0 29 b6 00 00    	imul   $0xb629,%eax,%eax
  4015f5:	89 44 24 ec          	mov    %eax,-0x14(%rsp)
  4015f9:	8b 44 24 d8          	mov    -0x28(%rsp),%eax
  4015fd:	69 c0 1e b3 00 00    	imul   $0xb31e,%eax,%eax
  401603:	89 44 24 d8          	mov    %eax,-0x28(%rsp)
  401607:	8b 44 24 dc          	mov    -0x24(%rsp),%eax
  40160b:	69 c0 4c 85 00 00    	imul   $0x854c,%eax,%eax
  401611:	89 44 24 dc          	mov    %eax,-0x24(%rsp)
  401615:	8b 44 24 d4          	mov    -0x2c(%rsp),%eax
  401619:	69 c0 d0 fc 00 00    	imul   $0xfcd0,%eax,%eax
  40161f:	89 44 24 d4          	mov    %eax,-0x2c(%rsp)
  401623:	8b 44 24 cc          	mov    -0x34(%rsp),%eax
  401627:	69 c0 83 ff 00 00    	imul   $0xff83,%eax,%eax
  40162d:	89 44 24 cc          	mov    %eax,-0x34(%rsp)
  401631:	8b 44 24 d8          	mov    -0x28(%rsp),%eax
  401635:	69 c0 a8 2c 00 00    	imul   $0x2ca8,%eax,%eax
  40163b:	89 44 24 d8          	mov    %eax,-0x28(%rsp)
  40163f:	ba 00 00 00 00       	mov    $0x0,%edx
  401644:	b8 00 00 00 00       	mov    $0x0,%eax
  401649:	89 d1                	mov    %edx,%ecx
  40164b:	8b 4c 8c c8          	mov    -0x38(%rsp,%rcx,4),%ecx
  40164f:	01 c8                	add    %ecx,%eax
  401651:	83 c2 01             	add    $0x1,%edx
  401654:	83 fa 0a             	cmp    $0xa,%edx
  401657:	75 f0                	jne    401649 <scramble+0x421>
  401659:	f3 c3                	repz retq 
  40165b:	90                   	nop

000000000040165c <getbuf>:
  40165c:	48 83 ec 18          	sub    $0x18,%rsp
  401660:	48 89 e7             	mov    %rsp,%rdi
  401663:	e8 f3 06 00 00       	callq  401d5b <Gets>
  401668:	b8 01 00 00 00       	mov    $0x1,%eax
  40166d:	48 83 c4 18          	add    $0x18,%rsp
  401671:	c3                   	retq   
  401672:	90                   	nop
  401673:	90                   	nop

0000000000401674 <test>:
  401674:	48 83 ec 08          	sub    $0x8,%rsp
  401678:	b8 00 00 00 00       	mov    $0x0,%eax
  40167d:	e8 da ff ff ff       	callq  40165c <getbuf>
  401682:	89 c6                	mov    %eax,%esi
  401684:	bf a0 2c 40 00       	mov    $0x402ca0,%edi
  401689:	b8 00 00 00 00       	mov    $0x0,%eax
  40168e:	e8 ed f4 ff ff       	callq  400b80 <printf@plt>
  401693:	48 83 c4 08          	add    $0x8,%rsp
  401697:	c3                   	retq   

0000000000401698 <touch2>:
  401698:	48 83 ec 08          	sub    $0x8,%rsp
  40169c:	89 fe                	mov    %edi,%esi
  40169e:	c7 05 84 28 20 00 02 	movl   $0x2,0x202884(%rip)        # 603f2c <vlevel>
  4016a5:	00 00 00 
  4016a8:	3b 3d 76 28 20 00    	cmp    0x202876(%rip),%edi        # 603f24 <cookie>
  4016ae:	75 1b                	jne    4016cb <touch2+0x33>
  4016b0:	bf c8 2c 40 00       	mov    $0x402cc8,%edi
  4016b5:	b8 00 00 00 00       	mov    $0x0,%eax
  4016ba:	e8 c1 f4 ff ff       	callq  400b80 <printf@plt>
  4016bf:	bf 02 00 00 00       	mov    $0x2,%edi
  4016c4:	e8 bf 05 00 00       	callq  401c88 <validate>
  4016c9:	eb 19                	jmp    4016e4 <touch2+0x4c>
  4016cb:	bf f0 2c 40 00       	mov    $0x402cf0,%edi
  4016d0:	b8 00 00 00 00       	mov    $0x0,%eax
  4016d5:	e8 a6 f4 ff ff       	callq  400b80 <printf@plt>
  4016da:	bf 02 00 00 00       	mov    $0x2,%edi
  4016df:	e8 7a 05 00 00       	callq  401c5e <fail>
  4016e4:	bf 00 00 00 00       	mov    $0x0,%edi
  4016e9:	e8 f2 f4 ff ff       	callq  400be0 <exit@plt>

00000000004016ee <hexmatch>:
  4016ee:	48 89 5c 24 e8       	mov    %rbx,-0x18(%rsp)
  4016f3:	48 89 6c 24 f0       	mov    %rbp,-0x10(%rsp)
  4016f8:	4c 89 64 24 f8       	mov    %r12,-0x8(%rsp)
  4016fd:	48 81 ec 88 00 00 00 	sub    $0x88,%rsp
  401704:	89 fd                	mov    %edi,%ebp
  401706:	49 89 f4             	mov    %rsi,%r12
  401709:	e8 22 f6 ff ff       	callq  400d30 <random@plt>
  40170e:	48 89 c1             	mov    %rax,%rcx
  401711:	48 ba 0b d7 a3 70 3d 	mov    $0xa3d70a3d70a3d70b,%rdx
  401718:	0a d7 a3 
  40171b:	48 f7 ea             	imul   %rdx
  40171e:	48 01 ca             	add    %rcx,%rdx
  401721:	48 c1 fa 06          	sar    $0x6,%rdx
  401725:	48 89 c8             	mov    %rcx,%rax
  401728:	48 c1 f8 3f          	sar    $0x3f,%rax
  40172c:	48 29 c2             	sub    %rax,%rdx
  40172f:	48 8d 04 92          	lea    (%rdx,%rdx,4),%rax
  401733:	48 8d 04 80          	lea    (%rax,%rax,4),%rax
  401737:	48 c1 e0 02          	shl    $0x2,%rax
  40173b:	48 29 c1             	sub    %rax,%rcx
  40173e:	48 8d 1c 0c          	lea    (%rsp,%rcx,1),%rbx
  401742:	89 ea                	mov    %ebp,%edx
  401744:	be 62 2d 40 00       	mov    $0x402d62,%esi
  401749:	48 89 df             	mov    %rbx,%rdi
  40174c:	b8 00 00 00 00       	mov    $0x0,%eax
  401751:	e8 2a f5 ff ff       	callq  400c80 <sprintf@plt>
  401756:	ba 09 00 00 00       	mov    $0x9,%edx
  40175b:	48 89 de             	mov    %rbx,%rsi
  40175e:	4c 89 e7             	mov    %r12,%rdi
  401761:	e8 ba f4 ff ff       	callq  400c20 <strncmp@plt>
  401766:	85 c0                	test   %eax,%eax
  401768:	0f 94 c0             	sete   %al
  40176b:	0f b6 c0             	movzbl %al,%eax
  40176e:	48 8b 5c 24 70       	mov    0x70(%rsp),%rbx
  401773:	48 8b 6c 24 78       	mov    0x78(%rsp),%rbp
  401778:	4c 8b a4 24 80 00 00 	mov    0x80(%rsp),%r12
  40177f:	00 
  401780:	48 81 c4 88 00 00 00 	add    $0x88,%rsp
  401787:	c3                   	retq   

0000000000401788 <touch3>:
  401788:	53                   	push   %rbx
  401789:	48 89 fb             	mov    %rdi,%rbx
  40178c:	c7 05 96 27 20 00 03 	movl   $0x3,0x202796(%rip)        # 603f2c <vlevel>
  401793:	00 00 00 
  401796:	48 89 fe             	mov    %rdi,%rsi
  401799:	8b 3d 85 27 20 00    	mov    0x202785(%rip),%edi        # 603f24 <cookie>
  40179f:	e8 4a ff ff ff       	callq  4016ee <hexmatch>
  4017a4:	85 c0                	test   %eax,%eax
  4017a6:	74 1e                	je     4017c6 <touch3+0x3e>
  4017a8:	48 89 de             	mov    %rbx,%rsi
  4017ab:	bf 18 2d 40 00       	mov    $0x402d18,%edi
  4017b0:	b8 00 00 00 00       	mov    $0x0,%eax
  4017b5:	e8 c6 f3 ff ff       	callq  400b80 <printf@plt>
  4017ba:	bf 03 00 00 00       	mov    $0x3,%edi
  4017bf:	e8 c4 04 00 00       	callq  401c88 <validate>
  4017c4:	eb 1c                	jmp    4017e2 <touch3+0x5a>
  4017c6:	48 89 de             	mov    %rbx,%rsi
  4017c9:	bf 40 2d 40 00       	mov    $0x402d40,%edi
  4017ce:	b8 00 00 00 00       	mov    $0x0,%eax
  4017d3:	e8 a8 f3 ff ff       	callq  400b80 <printf@plt>
  4017d8:	bf 03 00 00 00       	mov    $0x3,%edi
  4017dd:	e8 7c 04 00 00       	callq  401c5e <fail>
  4017e2:	bf 00 00 00 00       	mov    $0x0,%edi
  4017e7:	e8 f4 f3 ff ff       	callq  400be0 <exit@plt>

00000000004017ec <touch1>:
  4017ec:	48 83 ec 08          	sub    $0x8,%rsp
  4017f0:	c7 05 32 27 20 00 01 	movl   $0x1,0x202732(%rip)        # 603f2c <vlevel>
  4017f7:	00 00 00 
  4017fa:	bf 67 2d 40 00       	mov    $0x402d67,%edi
  4017ff:	e8 bc f3 ff ff       	callq  400bc0 <puts@plt>
  401804:	bf 01 00 00 00       	mov    $0x1,%edi
  401809:	e8 7a 04 00 00       	callq  401c88 <validate>
  40180e:	bf 00 00 00 00       	mov    $0x0,%edi
  401813:	e8 c8 f3 ff ff       	callq  400be0 <exit@plt>
  401818:	90                   	nop
  401819:	90                   	nop
  40181a:	90                   	nop
  40181b:	90                   	nop
  40181c:	90                   	nop
  40181d:	90                   	nop
  40181e:	90                   	nop
  40181f:	90                   	nop

0000000000401820 <check_fail>:
  401820:	48 83 ec 08          	sub    $0x8,%rsp
  401824:	0f be 35 39 33 20 00 	movsbl 0x203339(%rip),%esi        # 604b64 <target_prefix>
  40182b:	b9 60 3f 60 00       	mov    $0x603f60,%ecx
  401830:	8b 15 fa 26 20 00    	mov    0x2026fa(%rip),%edx        # 603f30 <check_level>
  401836:	bf 84 2d 40 00       	mov    $0x402d84,%edi
  40183b:	b8 00 00 00 00       	mov    $0x0,%eax
  401840:	e8 3b f3 ff ff       	callq  400b80 <printf@plt>
  401845:	bf 01 00 00 00       	mov    $0x1,%edi
  40184a:	e8 91 f3 ff ff       	callq  400be0 <exit@plt>

000000000040184f <launch>:
  40184f:	55                   	push   %rbp
  401850:	48 89 e5             	mov    %rsp,%rbp
  401853:	48 89 fa             	mov    %rdi,%rdx
  401856:	48 8d 47 1e          	lea    0x1e(%rdi),%rax
  40185a:	48 83 e0 f0          	and    $0xfffffffffffffff0,%rax
  40185e:	48 29 c4             	sub    %rax,%rsp
  401861:	48 8d 7c 24 0f       	lea    0xf(%rsp),%rdi
  401866:	48 83 e7 f0          	and    $0xfffffffffffffff0,%rdi
  40186a:	be f4 00 00 00       	mov    $0xf4,%esi
  40186f:	e8 1c f3 ff ff       	callq  400b90 <memset@plt>
  401874:	48 8b 05 65 26 20 00 	mov    0x202665(%rip),%rax        # 603ee0 <stdin@@GLIBC_2.2.5>
  40187b:	48 39 05 b6 26 20 00 	cmp    %rax,0x2026b6(%rip)        # 603f38 <infile>
  401882:	75 0f                	jne    401893 <launch+0x44>
  401884:	bf 9a 2d 40 00       	mov    $0x402d9a,%edi
  401889:	b8 00 00 00 00       	mov    $0x0,%eax
  40188e:	e8 ed f2 ff ff       	callq  400b80 <printf@plt>
  401893:	c7 05 8f 26 20 00 00 	movl   $0x0,0x20268f(%rip)        # 603f2c <vlevel>
  40189a:	00 00 00 
  40189d:	b8 00 00 00 00       	mov    $0x0,%eax
  4018a2:	e8 cd fd ff ff       	callq  401674 <test>
  4018a7:	83 3d 72 26 20 00 00 	cmpl   $0x0,0x202672(%rip)        # 603f20 <is_checker>
  4018ae:	74 16                	je     4018c6 <launch+0x77>
  4018b0:	bf a7 2d 40 00       	mov    $0x402da7,%edi
  4018b5:	e8 06 f3 ff ff       	callq  400bc0 <puts@plt>
  4018ba:	b8 00 00 00 00       	mov    $0x0,%eax
  4018bf:	e8 5c ff ff ff       	callq  401820 <check_fail>
  4018c4:	eb 0a                	jmp    4018d0 <launch+0x81>
  4018c6:	bf b2 2d 40 00       	mov    $0x402db2,%edi
  4018cb:	e8 f0 f2 ff ff       	callq  400bc0 <puts@plt>
  4018d0:	c9                   	leaveq 
  4018d1:	c3                   	retq   

00000000004018d2 <stable_launch>:
  4018d2:	48 83 ec 08          	sub    $0x8,%rsp
  4018d6:	48 89 3d 63 26 20 00 	mov    %rdi,0x202663(%rip)        # 603f40 <global_offset>
  4018dd:	41 b9 00 00 00 00    	mov    $0x0,%r9d
  4018e3:	41 b8 00 00 00 00    	mov    $0x0,%r8d
  4018e9:	b9 32 01 00 00       	mov    $0x132,%ecx
  4018ee:	ba 07 00 00 00       	mov    $0x7,%edx
  4018f3:	be 00 00 10 00       	mov    $0x100000,%esi
  4018f8:	bf 00 60 58 55       	mov    $0x55586000,%edi
  4018fd:	e8 6e f4 ff ff       	callq  400d70 <mmap@plt>
  401902:	48 3d 00 60 58 55    	cmp    $0x55586000,%rax
  401908:	74 32                	je     40193c <stable_launch+0x6a>
  40190a:	be 00 00 10 00       	mov    $0x100000,%esi
  40190f:	48 89 c7             	mov    %rax,%rdi
  401912:	e8 09 f4 ff ff       	callq  400d20 <munmap@plt>
  401917:	ba 00 60 58 55       	mov    $0x55586000,%edx
  40191c:	be b8 2e 40 00       	mov    $0x402eb8,%esi
  401921:	48 8b 3d e0 25 20 00 	mov    0x2025e0(%rip),%rdi        # 603f08 <stderr@@GLIBC_2.2.5>
  401928:	b8 00 00 00 00       	mov    $0x0,%eax
  40192d:	e8 0e f4 ff ff       	callq  400d40 <fprintf@plt>
  401932:	bf 01 00 00 00       	mov    $0x1,%edi
  401937:	e8 a4 f2 ff ff       	callq  400be0 <exit@plt>
  40193c:	48 c7 05 21 32 20 00 	movq   $0x55685ff8,0x203221(%rip)        # 604b68 <stack_top>
  401943:	f8 5f 68 55 
  401947:	ba f8 5f 68 55       	mov    $0x55685ff8,%edx
  40194c:	48 89 e0             	mov    %rsp,%rax
  40194f:	48 89 d4             	mov    %rdx,%rsp
  401952:	48 89 c2             	mov    %rax,%rdx
  401955:	48 89 15 ec 25 20 00 	mov    %rdx,0x2025ec(%rip)        # 603f48 <global_save_stack>
  40195c:	48 8b 3d dd 25 20 00 	mov    0x2025dd(%rip),%rdi        # 603f40 <global_offset>
  401963:	e8 e7 fe ff ff       	callq  40184f <launch>
  401968:	48 8b 05 d9 25 20 00 	mov    0x2025d9(%rip),%rax        # 603f48 <global_save_stack>
  40196f:	48 89 c4             	mov    %rax,%rsp
  401972:	be 00 00 10 00       	mov    $0x100000,%esi
  401977:	bf 00 60 58 55       	mov    $0x55586000,%edi
  40197c:	e8 9f f3 ff ff       	callq  400d20 <munmap@plt>
  401981:	48 83 c4 08          	add    $0x8,%rsp
  401985:	c3                   	retq   

0000000000401986 <notify_server>:
  401986:	53                   	push   %rbx
  401987:	48 81 ec 10 40 00 00 	sub    $0x4010,%rsp
  40198e:	89 fb                	mov    %edi,%ebx
  401990:	83 3d 89 25 20 00 00 	cmpl   $0x0,0x202589(%rip)        # 603f20 <is_checker>
  401997:	0f 85 78 01 00 00    	jne    401b15 <notify_server+0x18f>
  40199d:	8b 05 ad 25 20 00    	mov    0x2025ad(%rip),%eax        # 603f50 <gets_cnt>
  4019a3:	83 c0 64             	add    $0x64,%eax
  4019a6:	3d 00 20 00 00       	cmp    $0x2000,%eax
  4019ab:	7e 19                	jle    4019c6 <notify_server+0x40>
  4019ad:	bf e0 2e 40 00       	mov    $0x402ee0,%edi
  4019b2:	b8 00 00 00 00       	mov    $0x0,%eax
  4019b7:	e8 c4 f1 ff ff       	callq  400b80 <printf@plt>
  4019bc:	bf 01 00 00 00       	mov    $0x1,%edi
  4019c1:	e8 1a f2 ff ff       	callq  400be0 <exit@plt>
  4019c6:	83 3d f3 24 20 00 00 	cmpl   $0x0,0x2024f3(%rip)        # 603ec0 <notify>
  4019cd:	41 b8 ff ff ff ff    	mov    $0xffffffff,%r8d
  4019d3:	44 0f 45 05 4d 25 20 	cmovne 0x20254d(%rip),%r8d        # 603f28 <authkey>
  4019da:	00 
  4019db:	85 ff                	test   %edi,%edi
  4019dd:	b8 c0 2d 40 00       	mov    $0x402dc0,%eax
  4019e2:	b9 c5 2d 40 00       	mov    $0x402dc5,%ecx
  4019e7:	48 0f 44 c8          	cmove  %rax,%rcx
  4019eb:	44 0f be 0d 71 31 20 	movsbl 0x203171(%rip),%r9d        # 604b64 <target_prefix>
  4019f2:	00 
  4019f3:	48 8d bc 24 10 20 00 	lea    0x2010(%rsp),%rdi
  4019fa:	00 
  4019fb:	48 c7 44 24 08 60 3f 	movq   $0x603f60,0x8(%rsp)
  401a02:	60 00 
  401a04:	89 34 24             	mov    %esi,(%rsp)
  401a07:	8b 15 9b 24 20 00    	mov    0x20249b(%rip),%edx        # 603ea8 <target_id>
  401a0d:	be ca 2d 40 00       	mov    $0x402dca,%esi
  401a12:	b8 00 00 00 00       	mov    $0x0,%eax
  401a17:	e8 64 f2 ff ff       	callq  400c80 <sprintf@plt>
  401a1c:	83 3d 9d 24 20 00 00 	cmpl   $0x0,0x20249d(%rip)        # 603ec0 <notify>
  401a23:	74 78                	je     401a9d <notify_server+0x117>
  401a25:	85 db                	test   %ebx,%ebx
  401a27:	74 68                	je     401a91 <notify_server+0x10b>
  401a29:	48 8d 8c 24 10 20 00 	lea    0x2010(%rsp),%rcx
  401a30:	00 
  401a31:	4c 8d 4c 24 10       	lea    0x10(%rsp),%r9
  401a36:	41 b8 00 00 00 00    	mov    $0x0,%r8d
  401a3c:	48 8b 15 5d 24 20 00 	mov    0x20245d(%rip),%rdx        # 603ea0 <lab>
  401a43:	48 8b 35 16 21 20 00 	mov    0x202116(%rip),%rsi        # 603b60 <course>
  401a4a:	48 8b 3d 5f 24 20 00 	mov    0x20245f(%rip),%rdi        # 603eb0 <user_id>
  401a51:	e8 26 0d 00 00       	callq  40277c <driver_post>
  401a56:	85 c0                	test   %eax,%eax
  401a58:	79 1e                	jns    401a78 <notify_server+0xf2>
  401a5a:	48 8d 74 24 10       	lea    0x10(%rsp),%rsi
  401a5f:	bf e6 2d 40 00       	mov    $0x402de6,%edi
  401a64:	b8 00 00 00 00       	mov    $0x0,%eax
  401a69:	e8 12 f1 ff ff       	callq  400b80 <printf@plt>
  401a6e:	bf 01 00 00 00       	mov    $0x1,%edi
  401a73:	e8 68 f1 ff ff       	callq  400be0 <exit@plt>
  401a78:	bf 10 2f 40 00       	mov    $0x402f10,%edi
  401a7d:	e8 3e f1 ff ff       	callq  400bc0 <puts@plt>
  401a82:	bf f2 2d 40 00       	mov    $0x402df2,%edi
  401a87:	e8 34 f1 ff ff       	callq  400bc0 <puts@plt>
  401a8c:	e9 84 00 00 00       	jmpq   401b15 <notify_server+0x18f>
  401a91:	bf fc 2d 40 00       	mov    $0x402dfc,%edi
  401a96:	e8 25 f1 ff ff       	callq  400bc0 <puts@plt>
  401a9b:	eb 78                	jmp    401b15 <notify_server+0x18f>
  401a9d:	85 db                	test   %ebx,%ebx
  401a9f:	b8 c0 2d 40 00       	mov    $0x402dc0,%eax
  401aa4:	be c5 2d 40 00       	mov    $0x402dc5,%esi
  401aa9:	48 0f 44 f0          	cmove  %rax,%rsi
  401aad:	bf 48 2f 40 00       	mov    $0x402f48,%edi
  401ab2:	b8 00 00 00 00       	mov    $0x0,%eax
  401ab7:	e8 c4 f0 ff ff       	callq  400b80 <printf@plt>
  401abc:	48 8b 35 ed 23 20 00 	mov    0x2023ed(%rip),%rsi        # 603eb0 <user_id>
  401ac3:	bf 03 2e 40 00       	mov    $0x402e03,%edi
  401ac8:	b8 00 00 00 00       	mov    $0x0,%eax
  401acd:	e8 ae f0 ff ff       	callq  400b80 <printf@plt>
  401ad2:	48 8b 35 87 20 20 00 	mov    0x202087(%rip),%rsi        # 603b60 <course>
  401ad9:	bf 10 2e 40 00       	mov    $0x402e10,%edi
  401ade:	b8 00 00 00 00       	mov    $0x0,%eax
  401ae3:	e8 98 f0 ff ff       	callq  400b80 <printf@plt>
  401ae8:	48 8b 35 b1 23 20 00 	mov    0x2023b1(%rip),%rsi        # 603ea0 <lab>
  401aef:	bf 1c 2e 40 00       	mov    $0x402e1c,%edi
  401af4:	b8 00 00 00 00       	mov    $0x0,%eax
  401af9:	e8 82 f0 ff ff       	callq  400b80 <printf@plt>
  401afe:	48 8d b4 24 10 20 00 	lea    0x2010(%rsp),%rsi
  401b05:	00 
  401b06:	bf 25 2e 40 00       	mov    $0x402e25,%edi
  401b0b:	b8 00 00 00 00       	mov    $0x0,%eax
  401b10:	e8 6b f0 ff ff       	callq  400b80 <printf@plt>
  401b15:	48 81 c4 10 40 00 00 	add    $0x4010,%rsp
  401b1c:	5b                   	pop    %rbx
  401b1d:	c3                   	retq   

0000000000401b1e <sigalrmhandler>:
  401b1e:	48 83 ec 08          	sub    $0x8,%rsp
  401b22:	83 3d f7 23 20 00 00 	cmpl   $0x0,0x2023f7(%rip)        # 603f20 <is_checker>
  401b29:	74 16                	je     401b41 <sigalrmhandler+0x23>
  401b2b:	bf 31 2e 40 00       	mov    $0x402e31,%edi
  401b30:	e8 8b f0 ff ff       	callq  400bc0 <puts@plt>
  401b35:	b8 00 00 00 00       	mov    $0x0,%eax
  401b3a:	e8 e1 fc ff ff       	callq  401820 <check_fail>
  401b3f:	eb 23                	jmp    401b64 <sigalrmhandler+0x46>
  401b41:	be 05 00 00 00       	mov    $0x5,%esi
  401b46:	bf 70 2f 40 00       	mov    $0x402f70,%edi
  401b4b:	b8 00 00 00 00       	mov    $0x0,%eax
  401b50:	e8 2b f0 ff ff       	callq  400b80 <printf@plt>
  401b55:	be 00 00 00 00       	mov    $0x0,%esi
  401b5a:	bf 00 00 00 00       	mov    $0x0,%edi
  401b5f:	e8 22 fe ff ff       	callq  401986 <notify_server>
  401b64:	bf 01 00 00 00       	mov    $0x1,%edi
  401b69:	e8 72 f0 ff ff       	callq  400be0 <exit@plt>

0000000000401b6e <illegalhandler>:
  401b6e:	48 83 ec 08          	sub    $0x8,%rsp
  401b72:	83 3d a7 23 20 00 00 	cmpl   $0x0,0x2023a7(%rip)        # 603f20 <is_checker>
  401b79:	74 16                	je     401b91 <illegalhandler+0x23>
  401b7b:	bf 39 2e 40 00       	mov    $0x402e39,%edi
  401b80:	e8 3b f0 ff ff       	callq  400bc0 <puts@plt>
  401b85:	b8 00 00 00 00       	mov    $0x0,%eax
  401b8a:	e8 91 fc ff ff       	callq  401820 <check_fail>
  401b8f:	eb 23                	jmp    401bb4 <illegalhandler+0x46>
  401b91:	bf a8 2f 40 00       	mov    $0x402fa8,%edi
  401b96:	e8 25 f0 ff ff       	callq  400bc0 <puts@plt>
  401b9b:	bf 4d 2e 40 00       	mov    $0x402e4d,%edi
  401ba0:	e8 1b f0 ff ff       	callq  400bc0 <puts@plt>
  401ba5:	be 00 00 00 00       	mov    $0x0,%esi
  401baa:	bf 00 00 00 00       	mov    $0x0,%edi
  401baf:	e8 d2 fd ff ff       	callq  401986 <notify_server>
  401bb4:	bf 01 00 00 00       	mov    $0x1,%edi
  401bb9:	e8 22 f0 ff ff       	callq  400be0 <exit@plt>

0000000000401bbe <seghandler>:
  401bbe:	48 83 ec 08          	sub    $0x8,%rsp
  401bc2:	83 3d 57 23 20 00 00 	cmpl   $0x0,0x202357(%rip)        # 603f20 <is_checker>
  401bc9:	74 16                	je     401be1 <seghandler+0x23>
  401bcb:	bf 63 2e 40 00       	mov    $0x402e63,%edi
  401bd0:	e8 eb ef ff ff       	callq  400bc0 <puts@plt>
  401bd5:	b8 00 00 00 00       	mov    $0x0,%eax
  401bda:	e8 41 fc ff ff       	callq  401820 <check_fail>
  401bdf:	eb 23                	jmp    401c04 <seghandler+0x46>
  401be1:	bf d8 2f 40 00       	mov    $0x402fd8,%edi
  401be6:	e8 d5 ef ff ff       	callq  400bc0 <puts@plt>
  401beb:	bf 4d 2e 40 00       	mov    $0x402e4d,%edi
  401bf0:	e8 cb ef ff ff       	callq  400bc0 <puts@plt>
  401bf5:	be 00 00 00 00       	mov    $0x0,%esi
  401bfa:	bf 00 00 00 00       	mov    $0x0,%edi
  401bff:	e8 82 fd ff ff       	callq  401986 <notify_server>
  401c04:	bf 01 00 00 00       	mov    $0x1,%edi
  401c09:	e8 d2 ef ff ff       	callq  400be0 <exit@plt>

0000000000401c0e <bushandler>:
  401c0e:	48 83 ec 08          	sub    $0x8,%rsp
  401c12:	83 3d 07 23 20 00 00 	cmpl   $0x0,0x202307(%rip)        # 603f20 <is_checker>
  401c19:	74 16                	je     401c31 <bushandler+0x23>
  401c1b:	bf 76 2e 40 00       	mov    $0x402e76,%edi
  401c20:	e8 9b ef ff ff       	callq  400bc0 <puts@plt>
  401c25:	b8 00 00 00 00       	mov    $0x0,%eax
  401c2a:	e8 f1 fb ff ff       	callq  401820 <check_fail>
  401c2f:	eb 23                	jmp    401c54 <bushandler+0x46>
  401c31:	bf 00 30 40 00       	mov    $0x403000,%edi
  401c36:	e8 85 ef ff ff       	callq  400bc0 <puts@plt>
  401c3b:	bf 4d 2e 40 00       	mov    $0x402e4d,%edi
  401c40:	e8 7b ef ff ff       	callq  400bc0 <puts@plt>
  401c45:	be 00 00 00 00       	mov    $0x0,%esi
  401c4a:	bf 00 00 00 00       	mov    $0x0,%edi
  401c4f:	e8 32 fd ff ff       	callq  401986 <notify_server>
  401c54:	bf 01 00 00 00       	mov    $0x1,%edi
  401c59:	e8 82 ef ff ff       	callq  400be0 <exit@plt>

0000000000401c5e <fail>:
  401c5e:	48 83 ec 08          	sub    $0x8,%rsp
  401c62:	83 3d b7 22 20 00 00 	cmpl   $0x0,0x2022b7(%rip)        # 603f20 <is_checker>
  401c69:	74 0c                	je     401c77 <fail+0x19>
  401c6b:	b8 00 00 00 00       	mov    $0x0,%eax
  401c70:	e8 ab fb ff ff       	callq  401820 <check_fail>
  401c75:	eb 0c                	jmp    401c83 <fail+0x25>
  401c77:	89 fe                	mov    %edi,%esi
  401c79:	bf 00 00 00 00       	mov    $0x0,%edi
  401c7e:	e8 03 fd ff ff       	callq  401986 <notify_server>
  401c83:	48 83 c4 08          	add    $0x8,%rsp
  401c87:	c3                   	retq   

0000000000401c88 <validate>:
  401c88:	48 89 5c 24 f0       	mov    %rbx,-0x10(%rsp)
  401c8d:	48 89 6c 24 f8       	mov    %rbp,-0x8(%rsp)
  401c92:	48 83 ec 18          	sub    $0x18,%rsp
  401c96:	89 fb                	mov    %edi,%ebx
  401c98:	83 3d 81 22 20 00 00 	cmpl   $0x0,0x202281(%rip)        # 603f20 <is_checker>
  401c9f:	74 65                	je     401d06 <validate+0x7e>
  401ca1:	8b 15 85 22 20 00    	mov    0x202285(%rip),%edx        # 603f2c <vlevel>
  401ca7:	39 fa                	cmp    %edi,%edx
  401ca9:	74 19                	je     401cc4 <validate+0x3c>
  401cab:	bf 80 2e 40 00       	mov    $0x402e80,%edi
  401cb0:	e8 0b ef ff ff       	callq  400bc0 <puts@plt>
  401cb5:	b8 00 00 00 00       	mov    $0x0,%eax
  401cba:	e8 61 fb ff ff       	callq  401820 <check_fail>
  401cbf:	e9 88 00 00 00       	jmpq   401d4c <validate+0xc4>
  401cc4:	8b 35 66 22 20 00    	mov    0x202266(%rip),%esi        # 603f30 <check_level>
  401cca:	39 f2                	cmp    %esi,%edx
  401ccc:	74 1b                	je     401ce9 <validate+0x61>
  401cce:	bf 20 30 40 00       	mov    $0x403020,%edi
  401cd3:	b8 00 00 00 00       	mov    $0x0,%eax
  401cd8:	e8 a3 ee ff ff       	callq  400b80 <printf@plt>
  401cdd:	b8 00 00 00 00       	mov    $0x0,%eax
  401ce2:	e8 39 fb ff ff       	callq  401820 <check_fail>
  401ce7:	eb 63                	jmp    401d4c <validate+0xc4>
  401ce9:	0f be 35 74 2e 20 00 	movsbl 0x202e74(%rip),%esi        # 604b64 <target_prefix>
  401cf0:	b9 60 3f 60 00       	mov    $0x603f60,%ecx
  401cf5:	bf 9e 2e 40 00       	mov    $0x402e9e,%edi
  401cfa:	b8 00 00 00 00       	mov    $0x0,%eax
  401cff:	e8 7c ee ff ff       	callq  400b80 <printf@plt>
  401d04:	eb 46                	jmp    401d4c <validate+0xc4>
  401d06:	8b 2d 20 22 20 00    	mov    0x202220(%rip),%ebp        # 603f2c <vlevel>
  401d0c:	39 fd                	cmp    %edi,%ebp
  401d0e:	74 18                	je     401d28 <validate+0xa0>
  401d10:	bf 80 2e 40 00       	mov    $0x402e80,%edi
  401d15:	e8 a6 ee ff ff       	callq  400bc0 <puts@plt>
  401d1a:	89 de                	mov    %ebx,%esi
  401d1c:	bf 00 00 00 00       	mov    $0x0,%edi
  401d21:	e8 60 fc ff ff       	callq  401986 <notify_server>
  401d26:	eb 24                	jmp    401d4c <validate+0xc4>
  401d28:	0f be 15 35 2e 20 00 	movsbl 0x202e35(%rip),%edx        # 604b64 <target_prefix>
  401d2f:	89 ee                	mov    %ebp,%esi
  401d31:	bf 48 30 40 00       	mov    $0x403048,%edi
  401d36:	b8 00 00 00 00       	mov    $0x0,%eax
  401d3b:	e8 40 ee ff ff       	callq  400b80 <printf@plt>
  401d40:	89 ee                	mov    %ebp,%esi
  401d42:	bf 01 00 00 00       	mov    $0x1,%edi
  401d47:	e8 3a fc ff ff       	callq  401986 <notify_server>
  401d4c:	48 8b 5c 24 08       	mov    0x8(%rsp),%rbx
  401d51:	48 8b 6c 24 10       	mov    0x10(%rsp),%rbp
  401d56:	48 83 c4 18          	add    $0x18,%rsp
  401d5a:	c3                   	retq   

0000000000401d5b <Gets>:
  401d5b:	41 55                	push   %r13
  401d5d:	41 54                	push   %r12
  401d5f:	55                   	push   %rbp
  401d60:	53                   	push   %rbx
  401d61:	48 83 ec 08          	sub    $0x8,%rsp
  401d65:	49 89 fd             	mov    %rdi,%r13
  401d68:	c7 05 de 21 20 00 00 	movl   $0x0,0x2021de(%rip)        # 603f50 <gets_cnt>
  401d6f:	00 00 00 
  401d72:	48 89 fb             	mov    %rdi,%rbx
  401d75:	41 bc 60 3f 60 00    	mov    $0x603f60,%r12d
  401d7b:	bd 80 30 40 00       	mov    $0x403080,%ebp
  401d80:	eb 55                	jmp    401dd7 <Gets+0x7c>
  401d82:	88 03                	mov    %al,(%rbx)
  401d84:	8b 15 c6 21 20 00    	mov    0x2021c6(%rip),%edx        # 603f50 <gets_cnt>
  401d8a:	81 fa ff 03 00 00    	cmp    $0x3ff,%edx
  401d90:	7f 41                	jg     401dd3 <Gets+0x78>
  401d92:	41 89 c0             	mov    %eax,%r8d
  401d95:	8d 0c 52             	lea    (%rdx,%rdx,2),%ecx
  401d98:	48 63 f1             	movslq %ecx,%rsi
  401d9b:	c0 e8 04             	shr    $0x4,%al
  401d9e:	0f b6 f8             	movzbl %al,%edi
  401da1:	0f b6 7c 3d 00       	movzbl 0x0(%rbp,%rdi,1),%edi
  401da6:	41 88 3c 34          	mov    %dil,(%r12,%rsi,1)
  401daa:	8d 71 01             	lea    0x1(%rcx),%esi
  401dad:	48 63 f6             	movslq %esi,%rsi
  401db0:	4c 89 c0             	mov    %r8,%rax
  401db3:	83 e0 0f             	and    $0xf,%eax
  401db6:	0f b6 44 05 00       	movzbl 0x0(%rbp,%rax,1),%eax
  401dbb:	41 88 04 34          	mov    %al,(%r12,%rsi,1)
  401dbf:	83 c1 02             	add    $0x2,%ecx
  401dc2:	48 63 c9             	movslq %ecx,%rcx
  401dc5:	41 c6 04 0c 20       	movb   $0x20,(%r12,%rcx,1)
  401dca:	83 c2 01             	add    $0x1,%edx
  401dcd:	89 15 7d 21 20 00    	mov    %edx,0x20217d(%rip)        # 603f50 <gets_cnt>
  401dd3:	48 83 c3 01          	add    $0x1,%rbx
  401dd7:	48 8b 3d 5a 21 20 00 	mov    0x20215a(%rip),%rdi        # 603f38 <infile>
  401dde:	e8 7d ee ff ff       	callq  400c60 <_IO_getc@plt>
  401de3:	83 f8 ff             	cmp    $0xffffffffffffffff,%eax
  401de6:	74 05                	je     401ded <Gets+0x92>
  401de8:	83 f8 0a             	cmp    $0xa,%eax
  401deb:	75 95                	jne    401d82 <Gets+0x27>
  401ded:	c6 03 00             	movb   $0x0,(%rbx)
  401df0:	8b 05 5a 21 20 00    	mov    0x20215a(%rip),%eax        # 603f50 <gets_cnt>
  401df6:	8d 04 40             	lea    (%rax,%rax,2),%eax
  401df9:	48 98                	cltq   
  401dfb:	c6 80 60 3f 60 00 00 	movb   $0x0,0x603f60(%rax)
  401e02:	4c 89 e8             	mov    %r13,%rax
  401e05:	48 83 c4 08          	add    $0x8,%rsp
  401e09:	5b                   	pop    %rbx
  401e0a:	5d                   	pop    %rbp
  401e0b:	41 5c                	pop    %r12
  401e0d:	41 5d                	pop    %r13
  401e0f:	c3                   	retq   

0000000000401e10 <init_driver>:
  401e10:	41 54                	push   %r12
  401e12:	55                   	push   %rbp
  401e13:	53                   	push   %rbx
  401e14:	48 83 ec 10          	sub    $0x10,%rsp
  401e18:	49 89 fc             	mov    %rdi,%r12
  401e1b:	be 01 00 00 00       	mov    $0x1,%esi
  401e20:	bf 0d 00 00 00       	mov    $0xd,%edi
  401e25:	e8 a6 ee ff ff       	callq  400cd0 <signal@plt>
  401e2a:	be 01 00 00 00       	mov    $0x1,%esi
  401e2f:	bf 1d 00 00 00       	mov    $0x1d,%edi
  401e34:	e8 97 ee ff ff       	callq  400cd0 <signal@plt>
  401e39:	be 01 00 00 00       	mov    $0x1,%esi
  401e3e:	bf 1d 00 00 00       	mov    $0x1d,%edi
  401e43:	e8 88 ee ff ff       	callq  400cd0 <signal@plt>
  401e48:	ba 00 00 00 00       	mov    $0x0,%edx
  401e4d:	be 01 00 00 00       	mov    $0x1,%esi
  401e52:	bf 02 00 00 00       	mov    $0x2,%edi
  401e57:	e8 84 ee ff ff       	callq  400ce0 <socket@plt>
  401e5c:	89 c5                	mov    %eax,%ebp
  401e5e:	85 c0                	test   %eax,%eax
  401e60:	79 62                	jns    401ec4 <init_driver+0xb4>
  401e62:	41 c7 04 24 45 72 72 	movl   $0x6f727245,(%r12)
  401e69:	6f 
  401e6a:	41 c7 44 24 04 72 3a 	movl   $0x43203a72,0x4(%r12)
  401e71:	20 43 
  401e73:	41 c7 44 24 08 6c 69 	movl   $0x6e65696c,0x8(%r12)
  401e7a:	65 6e 
  401e7c:	41 c7 44 24 0c 74 20 	movl   $0x6e752074,0xc(%r12)
  401e83:	75 6e 
  401e85:	41 c7 44 24 10 61 62 	movl   $0x656c6261,0x10(%r12)
  401e8c:	6c 65 
  401e8e:	41 c7 44 24 14 20 74 	movl   $0x206f7420,0x14(%r12)
  401e95:	6f 20 
  401e97:	41 c7 44 24 18 63 72 	movl   $0x61657263,0x18(%r12)
  401e9e:	65 61 
  401ea0:	41 c7 44 24 1c 74 65 	movl   $0x73206574,0x1c(%r12)
  401ea7:	20 73 
  401ea9:	41 c7 44 24 20 6f 63 	movl   $0x656b636f,0x20(%r12)
  401eb0:	6b 65 
  401eb2:	66 41 c7 44 24 24 74 	movw   $0x74,0x24(%r12)
  401eb9:	00 
  401eba:	b8 ff ff ff ff       	mov    $0xffffffff,%eax
  401ebf:	e9 56 01 00 00       	jmpq   40201a <init_driver+0x20a>
  401ec4:	bf 6b 2c 40 00       	mov    $0x402c6b,%edi
  401ec9:	e8 e2 ec ff ff       	callq  400bb0 <gethostbyname@plt>
  401ece:	48 85 c0             	test   %rax,%rax
  401ed1:	0f 85 81 00 00 00    	jne    401f58 <init_driver+0x148>
  401ed7:	41 c7 04 24 45 72 72 	movl   $0x6f727245,(%r12)
  401ede:	6f 
  401edf:	41 c7 44 24 04 72 3a 	movl   $0x44203a72,0x4(%r12)
  401ee6:	20 44 
  401ee8:	41 c7 44 24 08 4e 53 	movl   $0x6920534e,0x8(%r12)
  401eef:	20 69 
  401ef1:	41 c7 44 24 0c 73 20 	movl   $0x6e752073,0xc(%r12)
  401ef8:	75 6e 
  401efa:	41 c7 44 24 10 61 62 	movl   $0x656c6261,0x10(%r12)
  401f01:	6c 65 
  401f03:	41 c7 44 24 14 20 74 	movl   $0x206f7420,0x14(%r12)
  401f0a:	6f 20 
  401f0c:	41 c7 44 24 18 72 65 	movl   $0x6f736572,0x18(%r12)
  401f13:	73 6f 
  401f15:	41 c7 44 24 1c 6c 76 	movl   $0x2065766c,0x1c(%r12)
  401f1c:	65 20 
  401f1e:	41 c7 44 24 20 73 65 	movl   $0x76726573,0x20(%r12)
  401f25:	72 76 
  401f27:	41 c7 44 24 24 65 72 	movl   $0x61207265,0x24(%r12)
  401f2e:	20 61 
  401f30:	41 c7 44 24 28 64 64 	movl   $0x65726464,0x28(%r12)
  401f37:	72 65 
  401f39:	66 41 c7 44 24 2c 73 	movw   $0x7373,0x2c(%r12)
  401f40:	73 
  401f41:	41 c6 44 24 2e 00    	movb   $0x0,0x2e(%r12)
  401f47:	89 ef                	mov    %ebp,%edi
  401f49:	e8 52 ec ff ff       	callq  400ba0 <close@plt>
  401f4e:	b8 ff ff ff ff       	mov    $0xffffffff,%eax
  401f53:	e9 c2 00 00 00       	jmpq   40201a <init_driver+0x20a>
  401f58:	48 c7 04 24 00 00 00 	movq   $0x0,(%rsp)
  401f5f:	00 
  401f60:	48 c7 44 24 08 00 00 	movq   $0x0,0x8(%rsp)
  401f67:	00 00 
  401f69:	66 c7 04 24 02 00    	movw   $0x2,(%rsp)
  401f6f:	48 63 50 14          	movslq 0x14(%rax),%rdx
  401f73:	48 8d 74 24 04       	lea    0x4(%rsp),%rsi
  401f78:	48 8b 40 18          	mov    0x18(%rax),%rax
  401f7c:	48 8b 38             	mov    (%rax),%rdi
  401f7f:	e8 ec ec ff ff       	callq  400c70 <bcopy@plt>
  401f84:	66 c7 44 24 02 36 b1 	movw   $0xb136,0x2(%rsp)
  401f8b:	ba 10 00 00 00       	mov    $0x10,%edx
  401f90:	48 89 e6             	mov    %rsp,%rsi
  401f93:	89 ef                	mov    %ebp,%edi
  401f95:	e8 06 ed ff ff       	callq  400ca0 <connect@plt>
  401f9a:	85 c0                	test   %eax,%eax
  401f9c:	79 63                	jns    402001 <init_driver+0x1f1>
  401f9e:	41 c7 04 24 45 72 72 	movl   $0x6f727245,(%r12)
  401fa5:	6f 
  401fa6:	41 c7 44 24 04 72 3a 	movl   $0x55203a72,0x4(%r12)
  401fad:	20 55 
  401faf:	41 c7 44 24 08 6e 61 	movl   $0x6c62616e,0x8(%r12)
  401fb6:	62 6c 
  401fb8:	41 c7 44 24 0c 65 20 	movl   $0x6f742065,0xc(%r12)
  401fbf:	74 6f 
  401fc1:	41 c7 44 24 10 20 63 	movl   $0x6e6f6320,0x10(%r12)
  401fc8:	6f 6e 
  401fca:	41 c7 44 24 14 6e 65 	movl   $0x7463656e,0x14(%r12)
  401fd1:	63 74 
  401fd3:	41 c7 44 24 18 20 74 	movl   $0x206f7420,0x18(%r12)
  401fda:	6f 20 
  401fdc:	41 c7 44 24 1c 73 65 	movl   $0x76726573,0x1c(%r12)
  401fe3:	72 76 
  401fe5:	66 41 c7 44 24 20 65 	movw   $0x7265,0x20(%r12)
  401fec:	72 
  401fed:	41 c6 44 24 22 00    	movb   $0x0,0x22(%r12)
  401ff3:	89 ef                	mov    %ebp,%edi
  401ff5:	e8 a6 eb ff ff       	callq  400ba0 <close@plt>
  401ffa:	b8 ff ff ff ff       	mov    $0xffffffff,%eax
  401fff:	eb 19                	jmp    40201a <init_driver+0x20a>
  402001:	89 ef                	mov    %ebp,%edi
  402003:	e8 98 eb ff ff       	callq  400ba0 <close@plt>
  402008:	66 41 c7 04 24 4f 4b 	movw   $0x4b4f,(%r12)
  40200f:	41 c6 44 24 02 00    	movb   $0x0,0x2(%r12)
  402015:	b8 00 00 00 00       	mov    $0x0,%eax
  40201a:	48 83 c4 10          	add    $0x10,%rsp
  40201e:	5b                   	pop    %rbx
  40201f:	5d                   	pop    %rbp
  402020:	41 5c                	pop    %r12
  402022:	c3                   	retq   

0000000000402023 <init_timeout>:
  402023:	53                   	push   %rbx
  402024:	89 fb                	mov    %edi,%ebx
  402026:	85 ff                	test   %edi,%edi
  402028:	74 1e                	je     402048 <init_timeout+0x25>
  40202a:	be ea 27 40 00       	mov    $0x4027ea,%esi
  40202f:	bf 0e 00 00 00       	mov    $0xe,%edi
  402034:	e8 97 ec ff ff       	callq  400cd0 <signal@plt>
  402039:	85 db                	test   %ebx,%ebx
  40203b:	bf 00 00 00 00       	mov    $0x0,%edi
  402040:	0f 49 fb             	cmovns %ebx,%edi
  402043:	e8 a8 ec ff ff       	callq  400cf0 <alarm@plt>
  402048:	5b                   	pop    %rbx
  402049:	c3                   	retq   

000000000040204a <rio_readlineb>:
  40204a:	41 57                	push   %r15
  40204c:	41 56                	push   %r14
  40204e:	41 55                	push   %r13
  402050:	41 54                	push   %r12
  402052:	55                   	push   %rbp
  402053:	53                   	push   %rbx
  402054:	48 83 ec 28          	sub    $0x28,%rsp
  402058:	48 89 fb             	mov    %rdi,%rbx
  40205b:	48 89 14 24          	mov    %rdx,(%rsp)
  40205f:	49 89 f7             	mov    %rsi,%r15
  402062:	48 83 fa 01          	cmp    $0x1,%rdx
  402066:	0f 86 be 00 00 00    	jbe    40212a <rio_readlineb+0xe0>
  40206c:	4c 8d 6f 10          	lea    0x10(%rdi),%r13
  402070:	4d 89 ec             	mov    %r13,%r12
  402073:	41 be 01 00 00 00    	mov    $0x1,%r14d
  402079:	eb 38                	jmp    4020b3 <rio_readlineb+0x69>
  40207b:	ba 00 20 00 00       	mov    $0x2000,%edx
  402080:	4c 89 ee             	mov    %r13,%rsi
  402083:	8b 3b                	mov    (%rbx),%edi
  402085:	e8 86 eb ff ff       	callq  400c10 <read@plt>
  40208a:	89 43 04             	mov    %eax,0x4(%rbx)
  40208d:	85 c0                	test   %eax,%eax
  40208f:	79 16                	jns    4020a7 <rio_readlineb+0x5d>
  402091:	e8 6a ec ff ff       	callq  400d00 <__errno_location@plt>
  402096:	83 38 04             	cmpl   $0x4,(%rax)
  402099:	74 18                	je     4020b3 <rio_readlineb+0x69>
  40209b:	48 c7 c2 ff ff ff ff 	mov    $0xffffffffffffffff,%rdx
  4020a2:	e9 a4 00 00 00       	jmpq   40214b <rio_readlineb+0x101>
  4020a7:	85 c0                	test   %eax,%eax
  4020a9:	0f 84 97 00 00 00    	je     402146 <rio_readlineb+0xfc>
  4020af:	4c 89 63 08          	mov    %r12,0x8(%rbx)
  4020b3:	8b 6b 04             	mov    0x4(%rbx),%ebp
  4020b6:	85 ed                	test   %ebp,%ebp
  4020b8:	7e c1                	jle    40207b <rio_readlineb+0x31>
  4020ba:	85 ed                	test   %ebp,%ebp
  4020bc:	0f 85 8e 00 00 00    	jne    402150 <rio_readlineb+0x106>
  4020c2:	48 63 c5             	movslq %ebp,%rax
  4020c5:	48 89 44 24 08       	mov    %rax,0x8(%rsp)
  4020ca:	48 8b 73 08          	mov    0x8(%rbx),%rsi
  4020ce:	48 89 c2             	mov    %rax,%rdx
  4020d1:	48 8d 7c 24 1f       	lea    0x1f(%rsp),%rdi
  4020d6:	e8 e5 eb ff ff       	callq  400cc0 <memcpy@plt>
  4020db:	48 8b 44 24 08       	mov    0x8(%rsp),%rax
  4020e0:	48 01 43 08          	add    %rax,0x8(%rbx)
  4020e4:	29 6b 04             	sub    %ebp,0x4(%rbx)
  4020e7:	89 c2                	mov    %eax,%edx
  4020e9:	83 f8 01             	cmp    $0x1,%eax
  4020ec:	75 15                	jne    402103 <rio_readlineb+0xb9>
  4020ee:	0f b6 44 24 1f       	movzbl 0x1f(%rsp),%eax
  4020f3:	41 88 07             	mov    %al,(%r15)
  4020f6:	49 83 c7 01          	add    $0x1,%r15
  4020fa:	80 7c 24 1f 0a       	cmpb   $0xa,0x1f(%rsp)
  4020ff:	75 1d                	jne    40211e <rio_readlineb+0xd4>
  402101:	eb 2d                	jmp    402130 <rio_readlineb+0xe6>
  402103:	4c 89 f1             	mov    %r14,%rcx
  402106:	48 c7 c0 ff ff ff ff 	mov    $0xffffffffffffffff,%rax
  40210d:	85 d2                	test   %edx,%edx
  40210f:	75 26                	jne    402137 <rio_readlineb+0xed>
  402111:	b8 00 00 00 00       	mov    $0x0,%eax
  402116:	48 83 f9 01          	cmp    $0x1,%rcx
  40211a:	75 14                	jne    402130 <rio_readlineb+0xe6>
  40211c:	eb 19                	jmp    402137 <rio_readlineb+0xed>
  40211e:	49 83 c6 01          	add    $0x1,%r14
  402122:	4c 39 34 24          	cmp    %r14,(%rsp)
  402126:	77 8b                	ja     4020b3 <rio_readlineb+0x69>
  402128:	eb 06                	jmp    402130 <rio_readlineb+0xe6>
  40212a:	41 be 01 00 00 00    	mov    $0x1,%r14d
  402130:	41 c6 07 00          	movb   $0x0,(%r15)
  402134:	4c 89 f0             	mov    %r14,%rax
  402137:	48 83 c4 28          	add    $0x28,%rsp
  40213b:	5b                   	pop    %rbx
  40213c:	5d                   	pop    %rbp
  40213d:	41 5c                	pop    %r12
  40213f:	41 5d                	pop    %r13
  402141:	41 5e                	pop    %r14
  402143:	41 5f                	pop    %r15
  402145:	c3                   	retq   
  402146:	ba 00 00 00 00       	mov    $0x0,%edx
  40214b:	4c 89 f1             	mov    %r14,%rcx
  40214e:	eb b6                	jmp    402106 <rio_readlineb+0xbc>
  402150:	48 8b 43 08          	mov    0x8(%rbx),%rax
  402154:	0f b6 00             	movzbl (%rax),%eax
  402157:	88 44 24 1f          	mov    %al,0x1f(%rsp)
  40215b:	48 83 43 08 01       	addq   $0x1,0x8(%rbx)
  402160:	83 6b 04 01          	subl   $0x1,0x4(%rbx)
  402164:	eb 88                	jmp    4020ee <rio_readlineb+0xa4>

0000000000402166 <submitr>:
  402166:	41 57                	push   %r15
  402168:	41 56                	push   %r14
  40216a:	41 55                	push   %r13
  40216c:	41 54                	push   %r12
  40216e:	55                   	push   %rbp
  40216f:	53                   	push   %rbx
  402170:	48 81 ec 68 a0 00 00 	sub    $0xa068,%rsp
  402177:	49 89 ff             	mov    %rdi,%r15
  40217a:	41 89 f4             	mov    %esi,%r12d
  40217d:	48 89 54 24 08       	mov    %rdx,0x8(%rsp)
  402182:	48 89 4c 24 10       	mov    %rcx,0x10(%rsp)
  402187:	4c 89 44 24 18       	mov    %r8,0x18(%rsp)
  40218c:	4c 89 cd             	mov    %r9,%rbp
  40218f:	4c 8b b4 24 a0 a0 00 	mov    0xa0a0(%rsp),%r14
  402196:	00 
  402197:	c7 84 24 3c 20 00 00 	movl   $0x0,0x203c(%rsp)
  40219e:	00 00 00 00 
  4021a2:	ba 00 00 00 00       	mov    $0x0,%edx
  4021a7:	be 01 00 00 00       	mov    $0x1,%esi
  4021ac:	bf 02 00 00 00       	mov    $0x2,%edi
  4021b1:	e8 2a eb ff ff       	callq  400ce0 <socket@plt>
  4021b6:	41 89 c5             	mov    %eax,%r13d
  4021b9:	85 c0                	test   %eax,%eax
  4021bb:	79 19                	jns    4021d6 <submitr+0x70>
  4021bd:	be d0 30 40 00       	mov    $0x4030d0,%esi
  4021c2:	b9 26 00 00 00       	mov    $0x26,%ecx
  4021c7:	4c 89 f7             	mov    %r14,%rdi
  4021ca:	f3 a4                	rep movsb %ds:(%rsi),%es:(%rdi)
  4021cc:	b8 ff ff ff ff       	mov    $0xffffffff,%eax
  4021d1:	e9 2e 05 00 00       	jmpq   402704 <submitr+0x59e>
  4021d6:	4c 89 ff             	mov    %r15,%rdi
  4021d9:	e8 d2 e9 ff ff       	callq  400bb0 <gethostbyname@plt>
  4021de:	48 85 c0             	test   %rax,%rax
  4021e1:	75 21                	jne    402204 <submitr+0x9e>
  4021e3:	be f8 30 40 00       	mov    $0x4030f8,%esi
  4021e8:	b9 2f 00 00 00       	mov    $0x2f,%ecx
  4021ed:	4c 89 f7             	mov    %r14,%rdi
  4021f0:	f3 a4                	rep movsb %ds:(%rsi),%es:(%rdi)
  4021f2:	44 89 ef             	mov    %r13d,%edi
  4021f5:	e8 a6 e9 ff ff       	callq  400ba0 <close@plt>
  4021fa:	b8 ff ff ff ff       	mov    $0xffffffff,%eax
  4021ff:	e9 00 05 00 00       	jmpq   402704 <submitr+0x59e>
  402204:	48 8d 9c 24 50 a0 00 	lea    0xa050(%rsp),%rbx
  40220b:	00 
  40220c:	48 c7 03 00 00 00 00 	movq   $0x0,(%rbx)
  402213:	48 c7 43 08 00 00 00 	movq   $0x0,0x8(%rbx)
  40221a:	00 
  40221b:	66 c7 84 24 50 a0 00 	movw   $0x2,0xa050(%rsp)
  402222:	00 02 00 
  402225:	48 63 50 14          	movslq 0x14(%rax),%rdx
  402229:	48 8d 73 04          	lea    0x4(%rbx),%rsi
  40222d:	48 8b 40 18          	mov    0x18(%rax),%rax
  402231:	48 8b 38             	mov    (%rax),%rdi
  402234:	e8 37 ea ff ff       	callq  400c70 <bcopy@plt>
  402239:	66 41 c1 cc 08       	ror    $0x8,%r12w
  40223e:	66 44 89 a4 24 52 a0 	mov    %r12w,0xa052(%rsp)
  402245:	00 00 
  402247:	ba 10 00 00 00       	mov    $0x10,%edx
  40224c:	48 89 de             	mov    %rbx,%rsi
  40224f:	44 89 ef             	mov    %r13d,%edi
  402252:	e8 49 ea ff ff       	callq  400ca0 <connect@plt>
  402257:	85 c0                	test   %eax,%eax
  402259:	79 21                	jns    40227c <submitr+0x116>
  40225b:	be 28 31 40 00       	mov    $0x403128,%esi
  402260:	b9 27 00 00 00       	mov    $0x27,%ecx
  402265:	4c 89 f7             	mov    %r14,%rdi
  402268:	f3 a4                	rep movsb %ds:(%rsi),%es:(%rdi)
  40226a:	44 89 ef             	mov    %r13d,%edi
  40226d:	e8 2e e9 ff ff       	callq  400ba0 <close@plt>
  402272:	b8 ff ff ff ff       	mov    $0xffffffff,%eax
  402277:	e9 88 04 00 00       	jmpq   402704 <submitr+0x59e>
  40227c:	48 c7 c2 ff ff ff ff 	mov    $0xffffffffffffffff,%rdx
  402283:	48 89 ef             	mov    %rbp,%rdi
  402286:	b8 00 00 00 00       	mov    $0x0,%eax
  40228b:	48 89 d1             	mov    %rdx,%rcx
  40228e:	f2 ae                	repnz scas %es:(%rdi),%al
  402290:	48 89 cb             	mov    %rcx,%rbx
  402293:	48 f7 d3             	not    %rbx
  402296:	48 8b 7c 24 08       	mov    0x8(%rsp),%rdi
  40229b:	48 89 d1             	mov    %rdx,%rcx
  40229e:	f2 ae                	repnz scas %es:(%rdi),%al
  4022a0:	48 89 ce             	mov    %rcx,%rsi
  4022a3:	48 8b 7c 24 10       	mov    0x10(%rsp),%rdi
  4022a8:	48 89 d1             	mov    %rdx,%rcx
  4022ab:	f2 ae                	repnz scas %es:(%rdi),%al
  4022ad:	49 89 c8             	mov    %rcx,%r8
  4022b0:	49 f7 d0             	not    %r8
  4022b3:	48 8b 7c 24 18       	mov    0x18(%rsp),%rdi
  4022b8:	48 89 d1             	mov    %rdx,%rcx
  4022bb:	f2 ae                	repnz scas %es:(%rdi),%al
  4022bd:	49 29 f0             	sub    %rsi,%r8
  4022c0:	49 29 c8             	sub    %rcx,%r8
  4022c3:	48 8d 5c 5b fd       	lea    -0x3(%rbx,%rbx,2),%rbx
  4022c8:	49 8d 44 18 7b       	lea    0x7b(%r8,%rbx,1),%rax
  4022cd:	48 3d 00 20 00 00    	cmp    $0x2000,%rax
  4022d3:	0f 86 81 00 00 00    	jbe    40235a <submitr+0x1f4>
  4022d9:	41 c7 06 45 72 72 6f 	movl   $0x6f727245,(%r14)
  4022e0:	41 c7 46 04 72 3a 20 	movl   $0x52203a72,0x4(%r14)
  4022e7:	52 
  4022e8:	41 c7 46 08 65 73 75 	movl   $0x6c757365,0x8(%r14)
  4022ef:	6c 
  4022f0:	41 c7 46 0c 74 20 73 	movl   $0x74732074,0xc(%r14)
  4022f7:	74 
  4022f8:	41 c7 46 10 72 69 6e 	movl   $0x676e6972,0x10(%r14)
  4022ff:	67 
  402300:	41 c7 46 14 20 74 6f 	movl   $0x6f6f7420,0x14(%r14)
  402307:	6f 
  402308:	41 c7 46 18 20 6c 61 	movl   $0x72616c20,0x18(%r14)
  40230f:	72 
  402310:	41 c7 46 1c 67 65 2e 	movl   $0x202e6567,0x1c(%r14)
  402317:	20 
  402318:	41 c7 46 20 49 6e 63 	movl   $0x72636e49,0x20(%r14)
  40231f:	72 
  402320:	41 c7 46 24 65 61 73 	movl   $0x65736165,0x24(%r14)
  402327:	65 
  402328:	41 c7 46 28 20 53 55 	movl   $0x42555320,0x28(%r14)
  40232f:	42 
  402330:	41 c7 46 2c 4d 49 54 	movl   $0x5254494d,0x2c(%r14)
  402337:	52 
  402338:	41 c7 46 30 5f 4d 41 	movl   $0x58414d5f,0x30(%r14)
  40233f:	58 
  402340:	41 c7 46 34 42 55 46 	movl   $0x465542,0x34(%r14)
  402347:	00 
  402348:	44 89 ef             	mov    %r13d,%edi
  40234b:	e8 50 e8 ff ff       	callq  400ba0 <close@plt>
  402350:	b8 ff ff ff ff       	mov    $0xffffffff,%eax
  402355:	e9 aa 03 00 00       	jmpq   402704 <submitr+0x59e>
  40235a:	48 8d 94 24 40 40 00 	lea    0x4040(%rsp),%rdx
  402361:	00 
  402362:	b9 00 04 00 00       	mov    $0x400,%ecx
  402367:	b8 00 00 00 00       	mov    $0x0,%eax
  40236c:	48 89 d7             	mov    %rdx,%rdi
  40236f:	f3 48 ab             	rep stos %rax,%es:(%rdi)
  402372:	48 89 ef             	mov    %rbp,%rdi
  402375:	48 c7 c1 ff ff ff ff 	mov    $0xffffffffffffffff,%rcx
  40237c:	f2 ae                	repnz scas %es:(%rdi),%al
  40237e:	48 f7 d1             	not    %rcx
  402381:	83 e9 01             	sub    $0x1,%ecx
  402384:	0f 84 8c 03 00 00    	je     402716 <submitr+0x5b0>
  40238a:	48 89 d3             	mov    %rdx,%rbx
  40238d:	44 8d 61 ff          	lea    -0x1(%rcx),%r12d
  402391:	0f b6 45 00          	movzbl 0x0(%rbp),%eax
  402395:	3c 2a                	cmp    $0x2a,%al
  402397:	74 24                	je     4023bd <submitr+0x257>
  402399:	3c 2d                	cmp    $0x2d,%al
  40239b:	74 20                	je     4023bd <submitr+0x257>
  40239d:	3c 2e                	cmp    $0x2e,%al
  40239f:	74 1c                	je     4023bd <submitr+0x257>
  4023a1:	3c 5f                	cmp    $0x5f,%al
  4023a3:	74 18                	je     4023bd <submitr+0x257>
  4023a5:	8d 50 d0             	lea    -0x30(%rax),%edx
  4023a8:	80 fa 09             	cmp    $0x9,%dl
  4023ab:	76 10                	jbe    4023bd <submitr+0x257>
  4023ad:	8d 50 bf             	lea    -0x41(%rax),%edx
  4023b0:	80 fa 19             	cmp    $0x19,%dl
  4023b3:	76 08                	jbe    4023bd <submitr+0x257>
  4023b5:	8d 50 9f             	lea    -0x61(%rax),%edx
  4023b8:	80 fa 19             	cmp    $0x19,%dl
  4023bb:	77 08                	ja     4023c5 <submitr+0x25f>
  4023bd:	88 03                	mov    %al,(%rbx)
  4023bf:	48 83 c3 01          	add    $0x1,%rbx
  4023c3:	eb 4b                	jmp    402410 <submitr+0x2aa>
  4023c5:	3c 20                	cmp    $0x20,%al
  4023c7:	75 09                	jne    4023d2 <submitr+0x26c>
  4023c9:	c6 03 2b             	movb   $0x2b,(%rbx)
  4023cc:	48 83 c3 01          	add    $0x1,%rbx
  4023d0:	eb 3e                	jmp    402410 <submitr+0x2aa>
  4023d2:	8d 50 e0             	lea    -0x20(%rax),%edx
  4023d5:	80 fa 5f             	cmp    $0x5f,%dl
  4023d8:	76 04                	jbe    4023de <submitr+0x278>
  4023da:	3c 09                	cmp    $0x9,%al
  4023dc:	75 48                	jne    402426 <submitr+0x2c0>
  4023de:	0f b6 d0             	movzbl %al,%edx
  4023e1:	be 90 30 40 00       	mov    $0x403090,%esi
  4023e6:	48 8d 7c 24 20       	lea    0x20(%rsp),%rdi
  4023eb:	b8 00 00 00 00       	mov    $0x0,%eax
  4023f0:	e8 8b e8 ff ff       	callq  400c80 <sprintf@plt>
  4023f5:	0f b6 44 24 20       	movzbl 0x20(%rsp),%eax
  4023fa:	88 03                	mov    %al,(%rbx)
  4023fc:	0f b6 44 24 21       	movzbl 0x21(%rsp),%eax
  402401:	88 43 01             	mov    %al,0x1(%rbx)
  402404:	0f b6 44 24 22       	movzbl 0x22(%rsp),%eax
  402409:	88 43 02             	mov    %al,0x2(%rbx)
  40240c:	48 83 c3 03          	add    $0x3,%rbx
  402410:	45 85 e4             	test   %r12d,%r12d
  402413:	0f 84 fd 02 00 00    	je     402716 <submitr+0x5b0>
  402419:	48 83 c5 01          	add    $0x1,%rbp
  40241d:	41 83 ec 01          	sub    $0x1,%r12d
  402421:	e9 6b ff ff ff       	jmpq   402391 <submitr+0x22b>
  402426:	be 50 31 40 00       	mov    $0x403150,%esi
  40242b:	b9 43 00 00 00       	mov    $0x43,%ecx
  402430:	4c 89 f7             	mov    %r14,%rdi
  402433:	f3 a4                	rep movsb %ds:(%rsi),%es:(%rdi)
  402435:	44 89 ef             	mov    %r13d,%edi
  402438:	e8 63 e7 ff ff       	callq  400ba0 <close@plt>
  40243d:	b8 ff ff ff ff       	mov    $0xffffffff,%eax
  402442:	e9 bd 02 00 00       	jmpq   402704 <submitr+0x59e>
  402447:	48 01 c5             	add    %rax,%rbp
  40244a:	48 89 da             	mov    %rbx,%rdx
  40244d:	48 89 ee             	mov    %rbp,%rsi
  402450:	44 89 ef             	mov    %r13d,%edi
  402453:	e8 f8 e8 ff ff       	callq  400d50 <write@plt>
  402458:	48 85 c0             	test   %rax,%rax
  40245b:	7f 0d                	jg     40246a <submitr+0x304>
  40245d:	e8 9e e8 ff ff       	callq  400d00 <__errno_location@plt>
  402462:	83 38 04             	cmpl   $0x4,(%rax)
  402465:	75 0d                	jne    402474 <submitr+0x30e>
  402467:	4c 89 f8             	mov    %r15,%rax
  40246a:	48 29 c3             	sub    %rax,%rbx
  40246d:	75 d8                	jne    402447 <submitr+0x2e1>
  40246f:	4d 85 e4             	test   %r12,%r12
  402472:	79 21                	jns    402495 <submitr+0x32f>
  402474:	be 98 31 40 00       	mov    $0x403198,%esi
  402479:	b9 33 00 00 00       	mov    $0x33,%ecx
  40247e:	4c 89 f7             	mov    %r14,%rdi
  402481:	f3 a4                	rep movsb %ds:(%rsi),%es:(%rdi)
  402483:	44 89 ef             	mov    %r13d,%edi
  402486:	e8 15 e7 ff ff       	callq  400ba0 <close@plt>
  40248b:	b8 ff ff ff ff       	mov    $0xffffffff,%eax
  402490:	e9 6f 02 00 00       	jmpq   402704 <submitr+0x59e>
  402495:	44 89 ac 24 40 80 00 	mov    %r13d,0x8040(%rsp)
  40249c:	00 
  40249d:	c7 84 24 44 80 00 00 	movl   $0x0,0x8044(%rsp)
  4024a4:	00 00 00 00 
  4024a8:	48 8d bc 24 40 80 00 	lea    0x8040(%rsp),%rdi
  4024af:	00 
  4024b0:	48 8d 47 10          	lea    0x10(%rdi),%rax
  4024b4:	48 89 84 24 48 80 00 	mov    %rax,0x8048(%rsp)
  4024bb:	00 
  4024bc:	48 8d b4 24 40 60 00 	lea    0x6040(%rsp),%rsi
  4024c3:	00 
  4024c4:	ba 00 20 00 00       	mov    $0x2000,%edx
  4024c9:	e8 7c fb ff ff       	callq  40204a <rio_readlineb>
  4024ce:	48 85 c0             	test   %rax,%rax
  4024d1:	7f 21                	jg     4024f4 <submitr+0x38e>
  4024d3:	be d0 31 40 00       	mov    $0x4031d0,%esi
  4024d8:	b9 3d 00 00 00       	mov    $0x3d,%ecx
  4024dd:	4c 89 f7             	mov    %r14,%rdi
  4024e0:	f3 a4                	rep movsb %ds:(%rsi),%es:(%rdi)
  4024e2:	44 89 ef             	mov    %r13d,%edi
  4024e5:	e8 b6 e6 ff ff       	callq  400ba0 <close@plt>
  4024ea:	b8 ff ff ff ff       	mov    $0xffffffff,%eax
  4024ef:	e9 10 02 00 00       	jmpq   402704 <submitr+0x59e>
  4024f4:	4c 8d bc 24 40 60 00 	lea    0x6040(%rsp),%r15
  4024fb:	00 
  4024fc:	48 8d 8c 24 3c 20 00 	lea    0x203c(%rsp),%rcx
  402503:	00 
  402504:	48 8d 94 24 40 20 00 	lea    0x2040(%rsp),%rdx
  40250b:	00 
  40250c:	4c 8d 44 24 30       	lea    0x30(%rsp),%r8
  402511:	be 97 30 40 00       	mov    $0x403097,%esi
  402516:	4c 89 ff             	mov    %r15,%rdi
  402519:	b8 00 00 00 00       	mov    $0x0,%eax
  40251e:	e8 ad e6 ff ff       	callq  400bd0 <__isoc99_sscanf@plt>
  402523:	48 8d 9c 24 40 60 00 	lea    0x6040(%rsp),%rbx
  40252a:	00 
  40252b:	bd ae 30 40 00       	mov    $0x4030ae,%ebp
  402530:	4c 8d a4 24 40 80 00 	lea    0x8040(%rsp),%r12
  402537:	00 
  402538:	e9 a2 00 00 00       	jmpq   4025df <submitr+0x479>
  40253d:	ba 00 20 00 00       	mov    $0x2000,%edx
  402542:	48 89 de             	mov    %rbx,%rsi
  402545:	4c 89 e7             	mov    %r12,%rdi
  402548:	e8 fd fa ff ff       	callq  40204a <rio_readlineb>
  40254d:	48 85 c0             	test   %rax,%rax
  402550:	0f 8f 89 00 00 00    	jg     4025df <submitr+0x479>
  402556:	41 c7 06 45 72 72 6f 	movl   $0x6f727245,(%r14)
  40255d:	41 c7 46 04 72 3a 20 	movl   $0x43203a72,0x4(%r14)
  402564:	43 
  402565:	41 c7 46 08 6c 69 65 	movl   $0x6e65696c,0x8(%r14)
  40256c:	6e 
  40256d:	41 c7 46 0c 74 20 75 	movl   $0x6e752074,0xc(%r14)
  402574:	6e 
  402575:	41 c7 46 10 61 62 6c 	movl   $0x656c6261,0x10(%r14)
  40257c:	65 
  40257d:	41 c7 46 14 20 74 6f 	movl   $0x206f7420,0x14(%r14)
  402584:	20 
  402585:	41 c7 46 18 72 65 61 	movl   $0x64616572,0x18(%r14)
  40258c:	64 
  40258d:	41 c7 46 1c 20 68 65 	movl   $0x61656820,0x1c(%r14)
  402594:	61 
  402595:	41 c7 46 20 64 65 72 	movl   $0x73726564,0x20(%r14)
  40259c:	73 
  40259d:	41 c7 46 24 20 66 72 	movl   $0x6f726620,0x24(%r14)
  4025a4:	6f 
  4025a5:	41 c7 46 28 6d 20 74 	movl   $0x6874206d,0x28(%r14)
  4025ac:	68 
  4025ad:	41 c7 46 2c 65 20 72 	movl   $0x65722065,0x2c(%r14)
  4025b4:	65 
  4025b5:	41 c7 46 30 73 75 6c 	movl   $0x746c7573,0x30(%r14)
  4025bc:	74 
  4025bd:	41 c7 46 34 20 73 65 	movl   $0x72657320,0x34(%r14)
  4025c4:	72 
  4025c5:	41 c7 46 38 76 65 72 	movl   $0x726576,0x38(%r14)
  4025cc:	00 
  4025cd:	44 89 ef             	mov    %r13d,%edi
  4025d0:	e8 cb e5 ff ff       	callq  400ba0 <close@plt>
  4025d5:	b8 ff ff ff ff       	mov    $0xffffffff,%eax
  4025da:	e9 25 01 00 00       	jmpq   402704 <submitr+0x59e>
  4025df:	0f b6 03             	movzbl (%rbx),%eax
  4025e2:	3a 45 00             	cmp    0x0(%rbp),%al
  4025e5:	0f 85 52 ff ff ff    	jne    40253d <submitr+0x3d7>
  4025eb:	0f b6 43 01          	movzbl 0x1(%rbx),%eax
  4025ef:	3a 45 01             	cmp    0x1(%rbp),%al
  4025f2:	0f 85 45 ff ff ff    	jne    40253d <submitr+0x3d7>
  4025f8:	0f b6 43 02          	movzbl 0x2(%rbx),%eax
  4025fc:	3a 45 02             	cmp    0x2(%rbp),%al
  4025ff:	0f 85 38 ff ff ff    	jne    40253d <submitr+0x3d7>
  402605:	48 8d b4 24 40 60 00 	lea    0x6040(%rsp),%rsi
  40260c:	00 
  40260d:	48 8d bc 24 40 80 00 	lea    0x8040(%rsp),%rdi
  402614:	00 
  402615:	ba 00 20 00 00       	mov    $0x2000,%edx
  40261a:	e8 2b fa ff ff       	callq  40204a <rio_readlineb>
  40261f:	48 85 c0             	test   %rax,%rax
  402622:	7f 21                	jg     402645 <submitr+0x4df>
  402624:	be 10 32 40 00       	mov    $0x403210,%esi
  402629:	b9 3f 00 00 00       	mov    $0x3f,%ecx
  40262e:	4c 89 f7             	mov    %r14,%rdi
  402631:	f3 a4                	rep movsb %ds:(%rsi),%es:(%rdi)
  402633:	44 89 ef             	mov    %r13d,%edi
  402636:	e8 65 e5 ff ff       	callq  400ba0 <close@plt>
  40263b:	b8 ff ff ff ff       	mov    $0xffffffff,%eax
  402640:	e9 bf 00 00 00       	jmpq   402704 <submitr+0x59e>
  402645:	8b 94 24 3c 20 00 00 	mov    0x203c(%rsp),%edx
  40264c:	81 fa c8 00 00 00    	cmp    $0xc8,%edx
  402652:	74 29                	je     40267d <submitr+0x517>
  402654:	48 8d 4c 24 30       	lea    0x30(%rsp),%rcx
  402659:	be 50 32 40 00       	mov    $0x403250,%esi
  40265e:	4c 89 f7             	mov    %r14,%rdi
  402661:	b8 00 00 00 00       	mov    $0x0,%eax
  402666:	e8 15 e6 ff ff       	callq  400c80 <sprintf@plt>
  40266b:	44 89 ef             	mov    %r13d,%edi
  40266e:	e8 2d e5 ff ff       	callq  400ba0 <close@plt>
  402673:	b8 ff ff ff ff       	mov    $0xffffffff,%eax
  402678:	e9 87 00 00 00       	jmpq   402704 <submitr+0x59e>
  40267d:	4c 89 fe             	mov    %r15,%rsi
  402680:	4c 89 f7             	mov    %r14,%rdi
  402683:	e8 88 e6 ff ff       	callq  400d10 <strcpy@plt>
  402688:	44 89 ef             	mov    %r13d,%edi
  40268b:	e8 10 e5 ff ff       	callq  400ba0 <close@plt>
  402690:	4c 89 f2             	mov    %r14,%rdx
  402693:	41 0f b6 06          	movzbl (%r14),%eax
  402697:	b9 a8 30 40 00       	mov    $0x4030a8,%ecx
  40269c:	0f b6 19             	movzbl (%rcx),%ebx
  40269f:	39 d8                	cmp    %ebx,%eax
  4026a1:	75 1e                	jne    4026c1 <submitr+0x55b>
  4026a3:	41 0f b6 5e 01       	movzbl 0x1(%r14),%ebx
  4026a8:	3a 59 01             	cmp    0x1(%rcx),%bl
  4026ab:	75 14                	jne    4026c1 <submitr+0x55b>
  4026ad:	41 0f b6 5e 02       	movzbl 0x2(%r14),%ebx
  4026b2:	3a 59 02             	cmp    0x2(%rcx),%bl
  4026b5:	75 0a                	jne    4026c1 <submitr+0x55b>
  4026b7:	41 0f b6 5e 03       	movzbl 0x3(%r14),%ebx
  4026bc:	3a 59 03             	cmp    0x3(%rcx),%bl
  4026bf:	74 37                	je     4026f8 <submitr+0x592>
  4026c1:	4c 89 f6             	mov    %r14,%rsi
  4026c4:	bf ac 30 40 00       	mov    $0x4030ac,%edi
  4026c9:	b9 05 00 00 00       	mov    $0x5,%ecx
  4026ce:	f3 a6                	repz cmpsb %es:(%rdi),%ds:(%rsi)
  4026d0:	0f 97 c3             	seta   %bl
  4026d3:	0f 92 c1             	setb   %cl
  4026d6:	38 cb                	cmp    %cl,%bl
  4026d8:	74 1e                	je     4026f8 <submitr+0x592>
  4026da:	b9 b1 30 40 00       	mov    $0x4030b1,%ecx
  4026df:	0f b6 19             	movzbl (%rcx),%ebx
  4026e2:	39 d8                	cmp    %ebx,%eax
  4026e4:	75 19                	jne    4026ff <submitr+0x599>
  4026e6:	0f b6 42 01          	movzbl 0x1(%rdx),%eax
  4026ea:	3a 41 01             	cmp    0x1(%rcx),%al
  4026ed:	75 10                	jne    4026ff <submitr+0x599>
  4026ef:	0f b6 42 02          	movzbl 0x2(%rdx),%eax
  4026f3:	3a 41 02             	cmp    0x2(%rcx),%al
  4026f6:	75 07                	jne    4026ff <submitr+0x599>
  4026f8:	b8 00 00 00 00       	mov    $0x0,%eax
  4026fd:	eb 05                	jmp    402704 <submitr+0x59e>
  4026ff:	b8 ff ff ff ff       	mov    $0xffffffff,%eax
  402704:	48 81 c4 68 a0 00 00 	add    $0xa068,%rsp
  40270b:	5b                   	pop    %rbx
  40270c:	5d                   	pop    %rbp
  40270d:	41 5c                	pop    %r12
  40270f:	41 5d                	pop    %r13
  402711:	41 5e                	pop    %r14
  402713:	41 5f                	pop    %r15
  402715:	c3                   	retq   
  402716:	48 8d 9c 24 40 60 00 	lea    0x6040(%rsp),%rbx
  40271d:	00 
  40271e:	4d 89 f9             	mov    %r15,%r9
  402721:	4c 8d 84 24 40 40 00 	lea    0x4040(%rsp),%r8
  402728:	00 
  402729:	48 8b 4c 24 08       	mov    0x8(%rsp),%rcx
  40272e:	48 8b 54 24 10       	mov    0x10(%rsp),%rdx
  402733:	be 80 32 40 00       	mov    $0x403280,%esi
  402738:	48 89 df             	mov    %rbx,%rdi
  40273b:	b8 00 00 00 00       	mov    $0x0,%eax
  402740:	e8 3b e5 ff ff       	callq  400c80 <sprintf@plt>
  402745:	48 89 df             	mov    %rbx,%rdi
  402748:	b8 00 00 00 00       	mov    $0x0,%eax
  40274d:	48 c7 c1 ff ff ff ff 	mov    $0xffffffffffffffff,%rcx
  402754:	f2 ae                	repnz scas %es:(%rdi),%al
  402756:	48 f7 d1             	not    %rcx
  402759:	49 89 cc             	mov    %rcx,%r12
  40275c:	49 83 ec 01          	sub    $0x1,%r12
  402760:	0f 84 2f fd ff ff    	je     402495 <submitr+0x32f>
  402766:	4c 89 e3             	mov    %r12,%rbx
  402769:	48 8d ac 24 40 60 00 	lea    0x6040(%rsp),%rbp
  402770:	00 
  402771:	41 bf 00 00 00 00    	mov    $0x0,%r15d
  402777:	e9 ce fc ff ff       	jmpq   40244a <submitr+0x2e4>

000000000040277c <driver_post>:
  40277c:	53                   	push   %rbx
  40277d:	48 83 ec 10          	sub    $0x10,%rsp
  402781:	4c 89 cb             	mov    %r9,%rbx
  402784:	45 85 c0             	test   %r8d,%r8d
  402787:	74 22                	je     4027ab <driver_post+0x2f>
  402789:	48 89 ce             	mov    %rcx,%rsi
  40278c:	bf b4 30 40 00       	mov    $0x4030b4,%edi
  402791:	b8 00 00 00 00       	mov    $0x0,%eax
  402796:	e8 e5 e3 ff ff       	callq  400b80 <printf@plt>
  40279b:	66 c7 03 4f 4b       	movw   $0x4b4f,(%rbx)
  4027a0:	c6 43 02 00          	movb   $0x0,0x2(%rbx)
  4027a4:	b8 00 00 00 00       	mov    $0x0,%eax
  4027a9:	eb 39                	jmp    4027e4 <driver_post+0x68>
  4027ab:	48 85 ff             	test   %rdi,%rdi
  4027ae:	74 26                	je     4027d6 <driver_post+0x5a>
  4027b0:	80 3f 00             	cmpb   $0x0,(%rdi)
  4027b3:	74 21                	je     4027d6 <driver_post+0x5a>
  4027b5:	4c 89 0c 24          	mov    %r9,(%rsp)
  4027b9:	49 89 c9             	mov    %rcx,%r9
  4027bc:	49 89 d0             	mov    %rdx,%r8
  4027bf:	48 89 f9             	mov    %rdi,%rcx
  4027c2:	48 89 f2             	mov    %rsi,%rdx
  4027c5:	be b1 36 00 00       	mov    $0x36b1,%esi
  4027ca:	bf 6b 2c 40 00       	mov    $0x402c6b,%edi
  4027cf:	e8 92 f9 ff ff       	callq  402166 <submitr>
  4027d4:	eb 0e                	jmp    4027e4 <driver_post+0x68>
  4027d6:	66 c7 03 4f 4b       	movw   $0x4b4f,(%rbx)
  4027db:	c6 43 02 00          	movb   $0x0,0x2(%rbx)
  4027df:	b8 00 00 00 00       	mov    $0x0,%eax
  4027e4:	48 83 c4 10          	add    $0x10,%rsp
  4027e8:	5b                   	pop    %rbx
  4027e9:	c3                   	retq   

00000000004027ea <sigalrm_handler>:
  4027ea:	48 83 ec 08          	sub    $0x8,%rsp
  4027ee:	ba 00 00 00 00       	mov    $0x0,%edx
  4027f3:	be c0 32 40 00       	mov    $0x4032c0,%esi
  4027f8:	48 8b 3d 09 17 20 00 	mov    0x201709(%rip),%rdi        # 603f08 <stderr@@GLIBC_2.2.5>
  4027ff:	b8 00 00 00 00       	mov    $0x0,%eax
  402804:	e8 37 e5 ff ff       	callq  400d40 <fprintf@plt>
  402809:	bf 01 00 00 00       	mov    $0x1,%edi
  40280e:	e8 cd e3 ff ff       	callq  400be0 <exit@plt>
  402813:	90                   	nop

0000000000402814 <check>:
  402814:	89 f8                	mov    %edi,%eax
  402816:	c1 e8 1c             	shr    $0x1c,%eax
  402819:	85 c0                	test   %eax,%eax
  40281b:	74 27                	je     402844 <check+0x30>
  40281d:	40 80 ff 0a          	cmp    $0xa,%dil
  402821:	74 21                	je     402844 <check+0x30>
  402823:	48 89 fa             	mov    %rdi,%rdx
  402826:	0f b6 c6             	movzbl %dh,%eax
  402829:	83 f8 0a             	cmp    $0xa,%eax
  40282c:	74 16                	je     402844 <check+0x30>
  40282e:	89 f8                	mov    %edi,%eax
  402830:	c1 e8 10             	shr    $0x10,%eax
  402833:	3c 0a                	cmp    $0xa,%al
  402835:	74 0d                	je     402844 <check+0x30>
  402837:	c1 ef 18             	shr    $0x18,%edi
  40283a:	83 ff 0a             	cmp    $0xa,%edi
  40283d:	0f 95 c0             	setne  %al
  402840:	0f b6 c0             	movzbl %al,%eax
  402843:	c3                   	retq   
  402844:	b8 00 00 00 00       	mov    $0x0,%eax
  402849:	c3                   	retq   

000000000040284a <gencookie>:
  40284a:	53                   	push   %rbx
  40284b:	83 c7 01             	add    $0x1,%edi
  40284e:	e8 fd e3 ff ff       	callq  400c50 <srandom@plt>
  402853:	e8 d8 e4 ff ff       	callq  400d30 <random@plt>
  402858:	89 c3                	mov    %eax,%ebx
  40285a:	89 c7                	mov    %eax,%edi
  40285c:	e8 b3 ff ff ff       	callq  402814 <check>
  402861:	85 c0                	test   %eax,%eax
  402863:	74 ee                	je     402853 <gencookie+0x9>
  402865:	89 d8                	mov    %ebx,%eax
  402867:	5b                   	pop    %rbx
  402868:	c3                   	retq   
  402869:	90                   	nop
  40286a:	90                   	nop
  40286b:	90                   	nop
  40286c:	90                   	nop
  40286d:	90                   	nop
  40286e:	90                   	nop
  40286f:	90                   	nop

0000000000402870 <__libc_csu_fini>:
  402870:	f3 c3                	repz retq 
  402872:	66 66 66 66 66 2e 0f 	data32 data32 data32 data32 nopw %cs:0x0(%rax,%rax,1)
  402879:	1f 84 00 00 00 00 00 

0000000000402880 <__libc_csu_init>:
  402880:	48 89 6c 24 d8       	mov    %rbp,-0x28(%rsp)
  402885:	4c 89 64 24 e0       	mov    %r12,-0x20(%rsp)
  40288a:	48 8d 2d b3 0f 20 00 	lea    0x200fb3(%rip),%rbp        # 603844 <__init_array_end>
  402891:	4c 8d 25 ac 0f 20 00 	lea    0x200fac(%rip),%r12        # 603844 <__init_array_end>
  402898:	4c 89 6c 24 e8       	mov    %r13,-0x18(%rsp)
  40289d:	4c 89 74 24 f0       	mov    %r14,-0x10(%rsp)
  4028a2:	4c 89 7c 24 f8       	mov    %r15,-0x8(%rsp)
  4028a7:	48 89 5c 24 d0       	mov    %rbx,-0x30(%rsp)
  4028ac:	48 83 ec 38          	sub    $0x38,%rsp
  4028b0:	4c 29 e5             	sub    %r12,%rbp
  4028b3:	41 89 fd             	mov    %edi,%r13d
  4028b6:	49 89 f6             	mov    %rsi,%r14
  4028b9:	48 c1 fd 03          	sar    $0x3,%rbp
  4028bd:	49 89 d7             	mov    %rdx,%r15
  4028c0:	e8 93 e2 ff ff       	callq  400b58 <_init>
  4028c5:	48 85 ed             	test   %rbp,%rbp
  4028c8:	74 1c                	je     4028e6 <__libc_csu_init+0x66>
  4028ca:	31 db                	xor    %ebx,%ebx
  4028cc:	0f 1f 40 00          	nopl   0x0(%rax)
  4028d0:	4c 89 fa             	mov    %r15,%rdx
  4028d3:	4c 89 f6             	mov    %r14,%rsi
  4028d6:	44 89 ef             	mov    %r13d,%edi
  4028d9:	41 ff 14 dc          	callq  *(%r12,%rbx,8)
  4028dd:	48 83 c3 01          	add    $0x1,%rbx
  4028e1:	48 39 eb             	cmp    %rbp,%rbx
  4028e4:	72 ea                	jb     4028d0 <__libc_csu_init+0x50>
  4028e6:	48 8b 5c 24 08       	mov    0x8(%rsp),%rbx
  4028eb:	48 8b 6c 24 10       	mov    0x10(%rsp),%rbp
  4028f0:	4c 8b 64 24 18       	mov    0x18(%rsp),%r12
  4028f5:	4c 8b 6c 24 20       	mov    0x20(%rsp),%r13
  4028fa:	4c 8b 74 24 28       	mov    0x28(%rsp),%r14
  4028ff:	4c 8b 7c 24 30       	mov    0x30(%rsp),%r15
  402904:	48 83 c4 38          	add    $0x38,%rsp
  402908:	c3                   	retq   
  402909:	90                   	nop
  40290a:	90                   	nop
  40290b:	90                   	nop
  40290c:	90                   	nop
  40290d:	90                   	nop
  40290e:	90                   	nop
  40290f:	90                   	nop

0000000000402910 <__do_global_ctors_aux>:
  402910:	55                   	push   %rbp
  402911:	48 89 e5             	mov    %rsp,%rbp
  402914:	53                   	push   %rbx
  402915:	48 83 ec 08          	sub    $0x8,%rsp
  402919:	48 8b 05 28 0f 20 00 	mov    0x200f28(%rip),%rax        # 603848 <__CTOR_LIST__>
  402920:	48 83 f8 ff          	cmp    $0xffffffffffffffff,%rax
  402924:	74 19                	je     40293f <__do_global_ctors_aux+0x2f>
  402926:	bb 48 38 60 00       	mov    $0x603848,%ebx
  40292b:	0f 1f 44 00 00       	nopl   0x0(%rax,%rax,1)
  402930:	48 83 eb 08          	sub    $0x8,%rbx
  402934:	ff d0                	callq  *%rax
  402936:	48 8b 03             	mov    (%rbx),%rax
  402939:	48 83 f8 ff          	cmp    $0xffffffffffffffff,%rax
  40293d:	75 f1                	jne    402930 <__do_global_ctors_aux+0x20>
  40293f:	48 83 c4 08          	add    $0x8,%rsp
  402943:	5b                   	pop    %rbx
  402944:	c9                   	leaveq 
  402945:	c3                   	retq   
  402946:	90                   	nop
  402947:	90                   	nop

Disassembly of section .fini:

0000000000402948 <_fini>:
  402948:	48 83 ec 08          	sub    $0x8,%rsp
  40294c:	e8 8f e4 ff ff       	callq  400de0 <__do_global_dtors_aux>
  402951:	48 83 c4 08          	add    $0x8,%rsp
  402955:	c3                   	retq   
