
rtarget:     file format elf64-x86-64


Disassembly of section .init:

0000000000400b58 <_init>:
  400b58:	48 83 ec 08          	sub    $0x8,%rsp
  400b5c:	e8 5b 02 00 00       	callq  400dbc <call_gmon_start>
  400b61:	e8 ea 02 00 00       	callq  400e50 <frame_dummy>
  400b66:	e8 c5 1e 00 00       	callq  402a30 <__do_global_ctors_aux>
  400b6b:	48 83 c4 08          	add    $0x8,%rsp
  400b6f:	c3                   	retq   

Disassembly of section .plt:

0000000000400b70 <printf@plt-0x10>:
  400b70:	ff 35 52 36 20 00    	pushq  0x203652(%rip)        # 6041c8 <_GLOBAL_OFFSET_TABLE_+0x8>
  400b76:	ff 25 54 36 20 00    	jmpq   *0x203654(%rip)        # 6041d0 <_GLOBAL_OFFSET_TABLE_+0x10>
  400b7c:	0f 1f 40 00          	nopl   0x0(%rax)

0000000000400b80 <printf@plt>:
  400b80:	ff 25 52 36 20 00    	jmpq   *0x203652(%rip)        # 6041d8 <_GLOBAL_OFFSET_TABLE_+0x18>
  400b86:	68 00 00 00 00       	pushq  $0x0
  400b8b:	e9 e0 ff ff ff       	jmpq   400b70 <_init+0x18>

0000000000400b90 <memset@plt>:
  400b90:	ff 25 4a 36 20 00    	jmpq   *0x20364a(%rip)        # 6041e0 <_GLOBAL_OFFSET_TABLE_+0x20>
  400b96:	68 01 00 00 00       	pushq  $0x1
  400b9b:	e9 d0 ff ff ff       	jmpq   400b70 <_init+0x18>

0000000000400ba0 <close@plt>:
  400ba0:	ff 25 42 36 20 00    	jmpq   *0x203642(%rip)        # 6041e8 <_GLOBAL_OFFSET_TABLE_+0x28>
  400ba6:	68 02 00 00 00       	pushq  $0x2
  400bab:	e9 c0 ff ff ff       	jmpq   400b70 <_init+0x18>

0000000000400bb0 <gethostbyname@plt>:
  400bb0:	ff 25 3a 36 20 00    	jmpq   *0x20363a(%rip)        # 6041f0 <_GLOBAL_OFFSET_TABLE_+0x30>
  400bb6:	68 03 00 00 00       	pushq  $0x3
  400bbb:	e9 b0 ff ff ff       	jmpq   400b70 <_init+0x18>

0000000000400bc0 <puts@plt>:
  400bc0:	ff 25 32 36 20 00    	jmpq   *0x203632(%rip)        # 6041f8 <_GLOBAL_OFFSET_TABLE_+0x38>
  400bc6:	68 04 00 00 00       	pushq  $0x4
  400bcb:	e9 a0 ff ff ff       	jmpq   400b70 <_init+0x18>

0000000000400bd0 <__isoc99_sscanf@plt>:
  400bd0:	ff 25 2a 36 20 00    	jmpq   *0x20362a(%rip)        # 604200 <_GLOBAL_OFFSET_TABLE_+0x40>
  400bd6:	68 05 00 00 00       	pushq  $0x5
  400bdb:	e9 90 ff ff ff       	jmpq   400b70 <_init+0x18>

0000000000400be0 <exit@plt>:
  400be0:	ff 25 22 36 20 00    	jmpq   *0x203622(%rip)        # 604208 <_GLOBAL_OFFSET_TABLE_+0x48>
  400be6:	68 06 00 00 00       	pushq  $0x6
  400beb:	e9 80 ff ff ff       	jmpq   400b70 <_init+0x18>

0000000000400bf0 <strcasecmp@plt>:
  400bf0:	ff 25 1a 36 20 00    	jmpq   *0x20361a(%rip)        # 604210 <_GLOBAL_OFFSET_TABLE_+0x50>
  400bf6:	68 07 00 00 00       	pushq  $0x7
  400bfb:	e9 70 ff ff ff       	jmpq   400b70 <_init+0x18>

0000000000400c00 <getopt@plt>:
  400c00:	ff 25 12 36 20 00    	jmpq   *0x203612(%rip)        # 604218 <_GLOBAL_OFFSET_TABLE_+0x58>
  400c06:	68 08 00 00 00       	pushq  $0x8
  400c0b:	e9 60 ff ff ff       	jmpq   400b70 <_init+0x18>

0000000000400c10 <read@plt>:
  400c10:	ff 25 0a 36 20 00    	jmpq   *0x20360a(%rip)        # 604220 <_GLOBAL_OFFSET_TABLE_+0x60>
  400c16:	68 09 00 00 00       	pushq  $0x9
  400c1b:	e9 50 ff ff ff       	jmpq   400b70 <_init+0x18>

0000000000400c20 <strncmp@plt>:
  400c20:	ff 25 02 36 20 00    	jmpq   *0x203602(%rip)        # 604228 <_GLOBAL_OFFSET_TABLE_+0x68>
  400c26:	68 0a 00 00 00       	pushq  $0xa
  400c2b:	e9 40 ff ff ff       	jmpq   400b70 <_init+0x18>

0000000000400c30 <fopen@plt>:
  400c30:	ff 25 fa 35 20 00    	jmpq   *0x2035fa(%rip)        # 604230 <_GLOBAL_OFFSET_TABLE_+0x70>
  400c36:	68 0b 00 00 00       	pushq  $0xb
  400c3b:	e9 30 ff ff ff       	jmpq   400b70 <_init+0x18>

0000000000400c40 <__libc_start_main@plt>:
  400c40:	ff 25 f2 35 20 00    	jmpq   *0x2035f2(%rip)        # 604238 <_GLOBAL_OFFSET_TABLE_+0x78>
  400c46:	68 0c 00 00 00       	pushq  $0xc
  400c4b:	e9 20 ff ff ff       	jmpq   400b70 <_init+0x18>

0000000000400c50 <srandom@plt>:
  400c50:	ff 25 ea 35 20 00    	jmpq   *0x2035ea(%rip)        # 604240 <_GLOBAL_OFFSET_TABLE_+0x80>
  400c56:	68 0d 00 00 00       	pushq  $0xd
  400c5b:	e9 10 ff ff ff       	jmpq   400b70 <_init+0x18>

0000000000400c60 <_IO_getc@plt>:
  400c60:	ff 25 e2 35 20 00    	jmpq   *0x2035e2(%rip)        # 604248 <_GLOBAL_OFFSET_TABLE_+0x88>
  400c66:	68 0e 00 00 00       	pushq  $0xe
  400c6b:	e9 00 ff ff ff       	jmpq   400b70 <_init+0x18>

0000000000400c70 <bcopy@plt>:
  400c70:	ff 25 da 35 20 00    	jmpq   *0x2035da(%rip)        # 604250 <_GLOBAL_OFFSET_TABLE_+0x90>
  400c76:	68 0f 00 00 00       	pushq  $0xf
  400c7b:	e9 f0 fe ff ff       	jmpq   400b70 <_init+0x18>

0000000000400c80 <sprintf@plt>:
  400c80:	ff 25 d2 35 20 00    	jmpq   *0x2035d2(%rip)        # 604258 <_GLOBAL_OFFSET_TABLE_+0x98>
  400c86:	68 10 00 00 00       	pushq  $0x10
  400c8b:	e9 e0 fe ff ff       	jmpq   400b70 <_init+0x18>

0000000000400c90 <strtol@plt>:
  400c90:	ff 25 ca 35 20 00    	jmpq   *0x2035ca(%rip)        # 604260 <_GLOBAL_OFFSET_TABLE_+0xa0>
  400c96:	68 11 00 00 00       	pushq  $0x11
  400c9b:	e9 d0 fe ff ff       	jmpq   400b70 <_init+0x18>

0000000000400ca0 <connect@plt>:
  400ca0:	ff 25 c2 35 20 00    	jmpq   *0x2035c2(%rip)        # 604268 <_GLOBAL_OFFSET_TABLE_+0xa8>
  400ca6:	68 12 00 00 00       	pushq  $0x12
  400cab:	e9 c0 fe ff ff       	jmpq   400b70 <_init+0x18>

0000000000400cb0 <gethostname@plt>:
  400cb0:	ff 25 ba 35 20 00    	jmpq   *0x2035ba(%rip)        # 604270 <_GLOBAL_OFFSET_TABLE_+0xb0>
  400cb6:	68 13 00 00 00       	pushq  $0x13
  400cbb:	e9 b0 fe ff ff       	jmpq   400b70 <_init+0x18>

0000000000400cc0 <memcpy@plt>:
  400cc0:	ff 25 b2 35 20 00    	jmpq   *0x2035b2(%rip)        # 604278 <_GLOBAL_OFFSET_TABLE_+0xb8>
  400cc6:	68 14 00 00 00       	pushq  $0x14
  400ccb:	e9 a0 fe ff ff       	jmpq   400b70 <_init+0x18>

0000000000400cd0 <signal@plt>:
  400cd0:	ff 25 aa 35 20 00    	jmpq   *0x2035aa(%rip)        # 604280 <_GLOBAL_OFFSET_TABLE_+0xc0>
  400cd6:	68 15 00 00 00       	pushq  $0x15
  400cdb:	e9 90 fe ff ff       	jmpq   400b70 <_init+0x18>

0000000000400ce0 <socket@plt>:
  400ce0:	ff 25 a2 35 20 00    	jmpq   *0x2035a2(%rip)        # 604288 <_GLOBAL_OFFSET_TABLE_+0xc8>
  400ce6:	68 16 00 00 00       	pushq  $0x16
  400ceb:	e9 80 fe ff ff       	jmpq   400b70 <_init+0x18>

0000000000400cf0 <alarm@plt>:
  400cf0:	ff 25 9a 35 20 00    	jmpq   *0x20359a(%rip)        # 604290 <_GLOBAL_OFFSET_TABLE_+0xd0>
  400cf6:	68 17 00 00 00       	pushq  $0x17
  400cfb:	e9 70 fe ff ff       	jmpq   400b70 <_init+0x18>

0000000000400d00 <__errno_location@plt>:
  400d00:	ff 25 92 35 20 00    	jmpq   *0x203592(%rip)        # 604298 <_GLOBAL_OFFSET_TABLE_+0xd8>
  400d06:	68 18 00 00 00       	pushq  $0x18
  400d0b:	e9 60 fe ff ff       	jmpq   400b70 <_init+0x18>

0000000000400d10 <strcpy@plt>:
  400d10:	ff 25 8a 35 20 00    	jmpq   *0x20358a(%rip)        # 6042a0 <_GLOBAL_OFFSET_TABLE_+0xe0>
  400d16:	68 19 00 00 00       	pushq  $0x19
  400d1b:	e9 50 fe ff ff       	jmpq   400b70 <_init+0x18>

0000000000400d20 <munmap@plt>:
  400d20:	ff 25 82 35 20 00    	jmpq   *0x203582(%rip)        # 6042a8 <_GLOBAL_OFFSET_TABLE_+0xe8>
  400d26:	68 1a 00 00 00       	pushq  $0x1a
  400d2b:	e9 40 fe ff ff       	jmpq   400b70 <_init+0x18>

0000000000400d30 <random@plt>:
  400d30:	ff 25 7a 35 20 00    	jmpq   *0x20357a(%rip)        # 6042b0 <_GLOBAL_OFFSET_TABLE_+0xf0>
  400d36:	68 1b 00 00 00       	pushq  $0x1b
  400d3b:	e9 30 fe ff ff       	jmpq   400b70 <_init+0x18>

0000000000400d40 <fprintf@plt>:
  400d40:	ff 25 72 35 20 00    	jmpq   *0x203572(%rip)        # 6042b8 <_GLOBAL_OFFSET_TABLE_+0xf8>
  400d46:	68 1c 00 00 00       	pushq  $0x1c
  400d4b:	e9 20 fe ff ff       	jmpq   400b70 <_init+0x18>

0000000000400d50 <write@plt>:
  400d50:	ff 25 6a 35 20 00    	jmpq   *0x20356a(%rip)        # 6042c0 <_GLOBAL_OFFSET_TABLE_+0x100>
  400d56:	68 1d 00 00 00       	pushq  $0x1d
  400d5b:	e9 10 fe ff ff       	jmpq   400b70 <_init+0x18>

0000000000400d60 <strtoul@plt>:
  400d60:	ff 25 62 35 20 00    	jmpq   *0x203562(%rip)        # 6042c8 <_GLOBAL_OFFSET_TABLE_+0x108>
  400d66:	68 1e 00 00 00       	pushq  $0x1e
  400d6b:	e9 00 fe ff ff       	jmpq   400b70 <_init+0x18>

0000000000400d70 <mmap@plt>:
  400d70:	ff 25 5a 35 20 00    	jmpq   *0x20355a(%rip)        # 6042d0 <_GLOBAL_OFFSET_TABLE_+0x110>
  400d76:	68 1f 00 00 00       	pushq  $0x1f
  400d7b:	e9 f0 fd ff ff       	jmpq   400b70 <_init+0x18>

0000000000400d80 <time@plt>:
  400d80:	ff 25 52 35 20 00    	jmpq   *0x203552(%rip)        # 6042d8 <_GLOBAL_OFFSET_TABLE_+0x118>
  400d86:	68 20 00 00 00       	pushq  $0x20
  400d8b:	e9 e0 fd ff ff       	jmpq   400b70 <_init+0x18>

Disassembly of section .text:

0000000000400d90 <_start>:
  400d90:	31 ed                	xor    %ebp,%ebp
  400d92:	49 89 d1             	mov    %rdx,%r9
  400d95:	5e                   	pop    %rsi
  400d96:	48 89 e2             	mov    %rsp,%rdx
  400d99:	48 83 e4 f0          	and    $0xfffffffffffffff0,%rsp
  400d9d:	50                   	push   %rax
  400d9e:	54                   	push   %rsp
  400d9f:	49 c7 c0 90 29 40 00 	mov    $0x402990,%r8
  400da6:	48 c7 c1 a0 29 40 00 	mov    $0x4029a0,%rcx
  400dad:	48 c7 c7 51 10 40 00 	mov    $0x401051,%rdi
  400db4:	e8 87 fe ff ff       	callq  400c40 <__libc_start_main@plt>
  400db9:	f4                   	hlt    
  400dba:	90                   	nop
  400dbb:	90                   	nop

0000000000400dbc <call_gmon_start>:
  400dbc:	48 83 ec 08          	sub    $0x8,%rsp
  400dc0:	48 8b 05 f1 33 20 00 	mov    0x2033f1(%rip),%rax        # 6041b8 <_DYNAMIC+0x190>
  400dc7:	48 85 c0             	test   %rax,%rax
  400dca:	74 02                	je     400dce <call_gmon_start+0x12>
  400dcc:	ff d0                	callq  *%rax
  400dce:	48 83 c4 08          	add    $0x8,%rsp
  400dd2:	c3                   	retq   
  400dd3:	90                   	nop
  400dd4:	90                   	nop
  400dd5:	90                   	nop
  400dd6:	90                   	nop
  400dd7:	90                   	nop
  400dd8:	90                   	nop
  400dd9:	90                   	nop
  400dda:	90                   	nop
  400ddb:	90                   	nop
  400ddc:	90                   	nop
  400ddd:	90                   	nop
  400dde:	90                   	nop
  400ddf:	90                   	nop

0000000000400de0 <__do_global_dtors_aux>:
  400de0:	55                   	push   %rbp
  400de1:	48 89 e5             	mov    %rsp,%rbp
  400de4:	53                   	push   %rbx
  400de5:	48 83 ec 08          	sub    $0x8,%rsp
  400de9:	80 3d c0 38 20 00 00 	cmpb   $0x0,0x2038c0(%rip)        # 6046b0 <completed.6352>
  400df0:	75 4b                	jne    400e3d <__do_global_dtors_aux+0x5d>
  400df2:	bb 18 40 60 00       	mov    $0x604018,%ebx
  400df7:	48 8b 05 ba 38 20 00 	mov    0x2038ba(%rip),%rax        # 6046b8 <dtor_idx.6354>
  400dfe:	48 81 eb 10 40 60 00 	sub    $0x604010,%rbx
  400e05:	48 c1 fb 03          	sar    $0x3,%rbx
  400e09:	48 83 eb 01          	sub    $0x1,%rbx
  400e0d:	48 39 d8             	cmp    %rbx,%rax
  400e10:	73 24                	jae    400e36 <__do_global_dtors_aux+0x56>
  400e12:	66 0f 1f 44 00 00    	nopw   0x0(%rax,%rax,1)
  400e18:	48 83 c0 01          	add    $0x1,%rax
  400e1c:	48 89 05 95 38 20 00 	mov    %rax,0x203895(%rip)        # 6046b8 <dtor_idx.6354>
  400e23:	ff 14 c5 10 40 60 00 	callq  *0x604010(,%rax,8)
  400e2a:	48 8b 05 87 38 20 00 	mov    0x203887(%rip),%rax        # 6046b8 <dtor_idx.6354>
  400e31:	48 39 d8             	cmp    %rbx,%rax
  400e34:	72 e2                	jb     400e18 <__do_global_dtors_aux+0x38>
  400e36:	c6 05 73 38 20 00 01 	movb   $0x1,0x203873(%rip)        # 6046b0 <completed.6352>
  400e3d:	48 83 c4 08          	add    $0x8,%rsp
  400e41:	5b                   	pop    %rbx
  400e42:	c9                   	leaveq 
  400e43:	c3                   	retq   
  400e44:	66 66 66 2e 0f 1f 84 	data32 data32 nopw %cs:0x0(%rax,%rax,1)
  400e4b:	00 00 00 00 00 

0000000000400e50 <frame_dummy>:
  400e50:	48 83 3d c8 31 20 00 	cmpq   $0x0,0x2031c8(%rip)        # 604020 <__JCR_END__>
  400e57:	00 
  400e58:	55                   	push   %rbp
  400e59:	48 89 e5             	mov    %rsp,%rbp
  400e5c:	74 12                	je     400e70 <frame_dummy+0x20>
  400e5e:	b8 00 00 00 00       	mov    $0x0,%eax
  400e63:	48 85 c0             	test   %rax,%rax
  400e66:	74 08                	je     400e70 <frame_dummy+0x20>
  400e68:	bf 20 40 60 00       	mov    $0x604020,%edi
  400e6d:	c9                   	leaveq 
  400e6e:	ff e0                	jmpq   *%rax
  400e70:	c9                   	leaveq 
  400e71:	c3                   	retq   
  400e72:	90                   	nop
  400e73:	90                   	nop
  400e74:	90                   	nop
  400e75:	90                   	nop
  400e76:	90                   	nop
  400e77:	90                   	nop
  400e78:	90                   	nop
  400e79:	90                   	nop
  400e7a:	90                   	nop
  400e7b:	90                   	nop
  400e7c:	90                   	nop
  400e7d:	90                   	nop
  400e7e:	90                   	nop
  400e7f:	90                   	nop

0000000000400e80 <usage>:
  400e80:	48 83 ec 08          	sub    $0x8,%rsp
  400e84:	48 89 fe             	mov    %rdi,%rsi
  400e87:	83 3d 32 38 20 00 00 	cmpl   $0x0,0x203832(%rip)        # 6046c0 <is_checker>
  400e8e:	74 39                	je     400ec9 <usage+0x49>
  400e90:	bf 90 2a 40 00       	mov    $0x402a90,%edi
  400e95:	b8 00 00 00 00       	mov    $0x0,%eax
  400e9a:	e8 e1 fc ff ff       	callq  400b80 <printf@plt>
  400e9f:	bf c8 2a 40 00       	mov    $0x402ac8,%edi
  400ea4:	e8 17 fd ff ff       	callq  400bc0 <puts@plt>
  400ea9:	bf 40 2c 40 00       	mov    $0x402c40,%edi
  400eae:	e8 0d fd ff ff       	callq  400bc0 <puts@plt>
  400eb3:	bf f0 2a 40 00       	mov    $0x402af0,%edi
  400eb8:	e8 03 fd ff ff       	callq  400bc0 <puts@plt>
  400ebd:	bf 5a 2c 40 00       	mov    $0x402c5a,%edi
  400ec2:	e8 f9 fc ff ff       	callq  400bc0 <puts@plt>
  400ec7:	eb 2d                	jmp    400ef6 <usage+0x76>
  400ec9:	bf 76 2c 40 00       	mov    $0x402c76,%edi
  400ece:	b8 00 00 00 00       	mov    $0x0,%eax
  400ed3:	e8 a8 fc ff ff       	callq  400b80 <printf@plt>
  400ed8:	bf 18 2b 40 00       	mov    $0x402b18,%edi
  400edd:	e8 de fc ff ff       	callq  400bc0 <puts@plt>
  400ee2:	bf 40 2b 40 00       	mov    $0x402b40,%edi
  400ee7:	e8 d4 fc ff ff       	callq  400bc0 <puts@plt>
  400eec:	bf 94 2c 40 00       	mov    $0x402c94,%edi
  400ef1:	e8 ca fc ff ff       	callq  400bc0 <puts@plt>
  400ef6:	bf 00 00 00 00       	mov    $0x0,%edi
  400efb:	e8 e0 fc ff ff       	callq  400be0 <exit@plt>

0000000000400f00 <initialize_target>:
  400f00:	55                   	push   %rbp
  400f01:	53                   	push   %rbx
  400f02:	48 81 ec 08 21 00 00 	sub    $0x2108,%rsp
  400f09:	89 f3                	mov    %esi,%ebx
  400f0b:	89 3d bf 37 20 00    	mov    %edi,0x2037bf(%rip)        # 6046d0 <check_level>
  400f11:	8b 3d 31 37 20 00    	mov    0x203731(%rip),%edi        # 604648 <target_id>
  400f17:	e8 4e 1a 00 00       	callq  40296a <gencookie>
  400f1c:	89 05 a2 37 20 00    	mov    %eax,0x2037a2(%rip)        # 6046c4 <cookie>
  400f22:	89 c7                	mov    %eax,%edi
  400f24:	e8 41 1a 00 00       	callq  40296a <gencookie>
  400f29:	89 05 99 37 20 00    	mov    %eax,0x203799(%rip)        # 6046c8 <authkey>
  400f2f:	8b 3d 13 37 20 00    	mov    0x203713(%rip),%edi        # 604648 <target_id>
  400f35:	83 c7 01             	add    $0x1,%edi
  400f38:	e8 13 fd ff ff       	callq  400c50 <srandom@plt>
  400f3d:	e8 ee fd ff ff       	callq  400d30 <random@plt>
  400f42:	89 c7                	mov    %eax,%edi
  400f44:	e8 df 02 00 00       	callq  401228 <scramble>
  400f49:	89 c5                	mov    %eax,%ebp
  400f4b:	b8 00 00 00 00       	mov    $0x0,%eax
  400f50:	85 db                	test   %ebx,%ebx
  400f52:	74 16                	je     400f6a <initialize_target+0x6a>
  400f54:	bf 00 00 00 00       	mov    $0x0,%edi
  400f59:	e8 22 fe ff ff       	callq  400d80 <time@plt>
  400f5e:	89 c7                	mov    %eax,%edi
  400f60:	e8 eb fc ff ff       	callq  400c50 <srandom@plt>
  400f65:	e8 c6 fd ff ff       	callq  400d30 <random@plt>
  400f6a:	01 e8                	add    %ebp,%eax
  400f6c:	0f b7 c0             	movzwl %ax,%eax
  400f6f:	48 8d 04 c5 00 01 00 	lea    0x100(,%rax,8),%rax
  400f76:	00 
  400f77:	48 89 05 da 36 20 00 	mov    %rax,0x2036da(%rip)        # 604658 <buf_offset>
  400f7e:	c6 05 7f 43 20 00 72 	movb   $0x72,0x20437f(%rip)        # 605304 <target_prefix>
  400f85:	83 3d d4 36 20 00 00 	cmpl   $0x0,0x2036d4(%rip)        # 604660 <notify>
  400f8c:	0f 84 b5 00 00 00    	je     401047 <initialize_target+0x147>
  400f92:	83 3d 27 37 20 00 00 	cmpl   $0x0,0x203727(%rip)        # 6046c0 <is_checker>
  400f99:	0f 85 a8 00 00 00    	jne    401047 <initialize_target+0x147>
  400f9f:	48 8d bc 24 00 20 00 	lea    0x2000(%rsp),%rdi
  400fa6:	00 
  400fa7:	be 00 01 00 00       	mov    $0x100,%esi
  400fac:	e8 ff fc ff ff       	callq  400cb0 <gethostname@plt>
  400fb1:	85 c0                	test   %eax,%eax
  400fb3:	75 1b                	jne    400fd0 <initialize_target+0xd0>
  400fb5:	48 8b 3d 64 33 20 00 	mov    0x203364(%rip),%rdi        # 604320 <host_table>
  400fbc:	bb 28 43 60 00       	mov    $0x604328,%ebx
  400fc1:	48 8d ac 24 00 20 00 	lea    0x2000(%rsp),%rbp
  400fc8:	00 
  400fc9:	48 85 ff             	test   %rdi,%rdi
  400fcc:	75 16                	jne    400fe4 <initialize_target+0xe4>
  400fce:	eb 56                	jmp    401026 <initialize_target+0x126>
  400fd0:	bf 70 2b 40 00       	mov    $0x402b70,%edi
  400fd5:	e8 e6 fb ff ff       	callq  400bc0 <puts@plt>
  400fda:	bf 08 00 00 00       	mov    $0x8,%edi
  400fdf:	e8 fc fb ff ff       	callq  400be0 <exit@plt>
  400fe4:	48 89 ee             	mov    %rbp,%rsi
  400fe7:	e8 04 fc ff ff       	callq  400bf0 <strcasecmp@plt>
  400fec:	85 c0                	test   %eax,%eax
  400fee:	74 0e                	je     400ffe <initialize_target+0xfe>
  400ff0:	48 8b 3b             	mov    (%rbx),%rdi
  400ff3:	48 83 c3 08          	add    $0x8,%rbx
  400ff7:	48 85 ff             	test   %rdi,%rdi
  400ffa:	75 e8                	jne    400fe4 <initialize_target+0xe4>
  400ffc:	eb 28                	jmp    401026 <initialize_target+0x126>
  400ffe:	48 89 e7             	mov    %rsp,%rdi
  401001:	e8 2a 0f 00 00       	callq  401f30 <init_driver>
  401006:	85 c0                	test   %eax,%eax
  401008:	79 3d                	jns    401047 <initialize_target+0x147>
  40100a:	48 89 e6             	mov    %rsp,%rsi
  40100d:	bf a8 2b 40 00       	mov    $0x402ba8,%edi
  401012:	b8 00 00 00 00       	mov    $0x0,%eax
  401017:	e8 64 fb ff ff       	callq  400b80 <printf@plt>
  40101c:	bf 08 00 00 00       	mov    $0x8,%edi
  401021:	e8 ba fb ff ff       	callq  400be0 <exit@plt>
  401026:	48 8d b4 24 00 20 00 	lea    0x2000(%rsp),%rsi
  40102d:	00 
  40102e:	bf d0 2b 40 00       	mov    $0x402bd0,%edi
  401033:	b8 00 00 00 00       	mov    $0x0,%eax
  401038:	e8 43 fb ff ff       	callq  400b80 <printf@plt>
  40103d:	bf 08 00 00 00       	mov    $0x8,%edi
  401042:	e8 99 fb ff ff       	callq  400be0 <exit@plt>
  401047:	48 81 c4 08 21 00 00 	add    $0x2108,%rsp
  40104e:	5b                   	pop    %rbx
  40104f:	5d                   	pop    %rbp
  401050:	c3                   	retq   

0000000000401051 <main>:
  401051:	41 57                	push   %r15
  401053:	41 56                	push   %r14
  401055:	41 55                	push   %r13
  401057:	41 54                	push   %r12
  401059:	55                   	push   %rbp
  40105a:	53                   	push   %rbx
  40105b:	48 83 ec 08          	sub    $0x8,%rsp
  40105f:	41 89 fc             	mov    %edi,%r12d
  401062:	48 89 f3             	mov    %rsi,%rbx
  401065:	be de 1c 40 00       	mov    $0x401cde,%esi
  40106a:	bf 0b 00 00 00       	mov    $0xb,%edi
  40106f:	e8 5c fc ff ff       	callq  400cd0 <signal@plt>
  401074:	be 2e 1d 40 00       	mov    $0x401d2e,%esi
  401079:	bf 07 00 00 00       	mov    $0x7,%edi
  40107e:	e8 4d fc ff ff       	callq  400cd0 <signal@plt>
  401083:	be 8e 1c 40 00       	mov    $0x401c8e,%esi
  401088:	bf 04 00 00 00       	mov    $0x4,%edi
  40108d:	e8 3e fc ff ff       	callq  400cd0 <signal@plt>
  401092:	bd ad 2c 40 00       	mov    $0x402cad,%ebp
  401097:	83 3d 22 36 20 00 00 	cmpl   $0x0,0x203622(%rip)        # 6046c0 <is_checker>
  40109e:	74 1e                	je     4010be <main+0x6d>
  4010a0:	be 3e 1c 40 00       	mov    $0x401c3e,%esi
  4010a5:	bf 0e 00 00 00       	mov    $0xe,%edi
  4010aa:	e8 21 fc ff ff       	callq  400cd0 <signal@plt>
  4010af:	bf 05 00 00 00       	mov    $0x5,%edi
  4010b4:	e8 37 fc ff ff       	callq  400cf0 <alarm@plt>
  4010b9:	bd b2 2c 40 00       	mov    $0x402cb2,%ebp
  4010be:	48 8b 05 bb 35 20 00 	mov    0x2035bb(%rip),%rax        # 604680 <stdin@@GLIBC_2.2.5>
  4010c5:	48 89 05 0c 36 20 00 	mov    %rax,0x20360c(%rip)        # 6046d8 <infile>
  4010cc:	41 be 00 00 00 00    	mov    $0x0,%r14d
  4010d2:	41 bf 00 00 00 00    	mov    $0x0,%r15d
  4010d8:	41 bd f8 2c 40 00    	mov    $0x402cf8,%r13d
  4010de:	e9 bd 00 00 00       	jmpq   4011a0 <main+0x14f>
  4010e3:	8d 50 9f             	lea    -0x61(%rax),%edx
  4010e6:	80 fa 10             	cmp    $0x10,%dl
  4010e9:	0f 87 97 00 00 00    	ja     401186 <main+0x135>
  4010ef:	0f b6 d2             	movzbl %dl,%edx
  4010f2:	41 ff 64 d5 00       	jmpq   *0x0(%r13,%rdx,8)
  4010f7:	48 8b 3b             	mov    (%rbx),%rdi
  4010fa:	e8 81 fd ff ff       	callq  400e80 <usage>
  4010ff:	90                   	nop
  401100:	e9 9b 00 00 00       	jmpq   4011a0 <main+0x14f>
  401105:	be 9e 2f 40 00       	mov    $0x402f9e,%esi
  40110a:	48 8b 3d 8f 35 20 00 	mov    0x20358f(%rip),%rdi        # 6046a0 <optarg@@GLIBC_2.2.5>
  401111:	e8 1a fb ff ff       	callq  400c30 <fopen@plt>
  401116:	48 89 05 bb 35 20 00 	mov    %rax,0x2035bb(%rip)        # 6046d8 <infile>
  40111d:	48 85 c0             	test   %rax,%rax
  401120:	75 7e                	jne    4011a0 <main+0x14f>
  401122:	48 8b 15 77 35 20 00 	mov    0x203577(%rip),%rdx        # 6046a0 <optarg@@GLIBC_2.2.5>
  401129:	be ba 2c 40 00       	mov    $0x402cba,%esi
  40112e:	48 8b 3d 73 35 20 00 	mov    0x203573(%rip),%rdi        # 6046a8 <stderr@@GLIBC_2.2.5>
  401135:	e8 06 fc ff ff       	callq  400d40 <fprintf@plt>
  40113a:	b8 01 00 00 00       	mov    $0x1,%eax
  40113f:	e9 d3 00 00 00       	jmpq   401217 <main+0x1c6>
  401144:	ba 10 00 00 00       	mov    $0x10,%edx
  401149:	be 00 00 00 00       	mov    $0x0,%esi
  40114e:	48 8b 3d 4b 35 20 00 	mov    0x20354b(%rip),%rdi        # 6046a0 <optarg@@GLIBC_2.2.5>
  401155:	e8 06 fc ff ff       	callq  400d60 <strtoul@plt>
  40115a:	41 89 c7             	mov    %eax,%r15d
  40115d:	eb 41                	jmp    4011a0 <main+0x14f>
  40115f:	ba 0a 00 00 00       	mov    $0xa,%edx
  401164:	be 00 00 00 00       	mov    $0x0,%esi
  401169:	48 8b 3d 30 35 20 00 	mov    0x203530(%rip),%rdi        # 6046a0 <optarg@@GLIBC_2.2.5>
  401170:	e8 1b fb ff ff       	callq  400c90 <strtol@plt>
  401175:	41 89 c6             	mov    %eax,%r14d
  401178:	eb 26                	jmp    4011a0 <main+0x14f>
  40117a:	c7 05 dc 34 20 00 00 	movl   $0x0,0x2034dc(%rip)        # 604660 <notify>
  401181:	00 00 00 
  401184:	eb 1a                	jmp    4011a0 <main+0x14f>
  401186:	0f be f0             	movsbl %al,%esi
  401189:	bf d7 2c 40 00       	mov    $0x402cd7,%edi
  40118e:	b8 00 00 00 00       	mov    $0x0,%eax
  401193:	e8 e8 f9 ff ff       	callq  400b80 <printf@plt>
  401198:	48 8b 3b             	mov    (%rbx),%rdi
  40119b:	e8 e0 fc ff ff       	callq  400e80 <usage>
  4011a0:	48 89 ea             	mov    %rbp,%rdx
  4011a3:	48 89 de             	mov    %rbx,%rsi
  4011a6:	44 89 e7             	mov    %r12d,%edi
  4011a9:	e8 52 fa ff ff       	callq  400c00 <getopt@plt>
  4011ae:	3c ff                	cmp    $0xff,%al
  4011b0:	0f 85 2d ff ff ff    	jne    4010e3 <main+0x92>
  4011b6:	be 01 00 00 00       	mov    $0x1,%esi
  4011bb:	44 89 f7             	mov    %r14d,%edi
  4011be:	e8 3d fd ff ff       	callq  400f00 <initialize_target>
  4011c3:	83 3d f6 34 20 00 00 	cmpl   $0x0,0x2034f6(%rip)        # 6046c0 <is_checker>
  4011ca:	74 25                	je     4011f1 <main+0x1a0>
  4011cc:	44 3b 3d f5 34 20 00 	cmp    0x2034f5(%rip),%r15d        # 6046c8 <authkey>
  4011d3:	74 1c                	je     4011f1 <main+0x1a0>
  4011d5:	44 89 fe             	mov    %r15d,%esi
  4011d8:	bf 10 2c 40 00       	mov    $0x402c10,%edi
  4011dd:	b8 00 00 00 00       	mov    $0x0,%eax
  4011e2:	e8 99 f9 ff ff       	callq  400b80 <printf@plt>
  4011e7:	b8 00 00 00 00       	mov    $0x0,%eax
  4011ec:	e8 4f 07 00 00       	callq  401940 <check_fail>
  4011f1:	8b 35 cd 34 20 00    	mov    0x2034cd(%rip),%esi        # 6046c4 <cookie>
  4011f7:	bf ea 2c 40 00       	mov    $0x402cea,%edi
  4011fc:	b8 00 00 00 00       	mov    $0x0,%eax
  401201:	e8 7a f9 ff ff       	callq  400b80 <printf@plt>
  401206:	48 8b 3d 4b 34 20 00 	mov    0x20344b(%rip),%rdi        # 604658 <buf_offset>
  40120d:	e8 5d 07 00 00       	callq  40196f <launch>
  401212:	b8 00 00 00 00       	mov    $0x0,%eax
  401217:	48 83 c4 08          	add    $0x8,%rsp
  40121b:	5b                   	pop    %rbx
  40121c:	5d                   	pop    %rbp
  40121d:	41 5c                	pop    %r12
  40121f:	41 5d                	pop    %r13
  401221:	41 5e                	pop    %r14
  401223:	41 5f                	pop    %r15
  401225:	c3                   	retq   
  401226:	90                   	nop
  401227:	90                   	nop

0000000000401228 <scramble>:
  401228:	b8 00 00 00 00       	mov    $0x0,%eax
  40122d:	89 c2                	mov    %eax,%edx
  40122f:	89 7c 94 c8          	mov    %edi,-0x38(%rsp,%rdx,4)
  401233:	83 c0 01             	add    $0x1,%eax
  401236:	81 c7 5f 38 00 00    	add    $0x385f,%edi
  40123c:	83 f8 0a             	cmp    $0xa,%eax
  40123f:	75 ec                	jne    40122d <scramble+0x5>
  401241:	8b 44 24 d8          	mov    -0x28(%rsp),%eax
  401245:	69 c0 c9 e5 00 00    	imul   $0xe5c9,%eax,%eax
  40124b:	89 44 24 d8          	mov    %eax,-0x28(%rsp)
  40124f:	8b 44 24 d4          	mov    -0x2c(%rsp),%eax
  401253:	69 c0 58 bc 00 00    	imul   $0xbc58,%eax,%eax
  401259:	89 44 24 d4          	mov    %eax,-0x2c(%rsp)
  40125d:	8b 44 24 e4          	mov    -0x1c(%rsp),%eax
  401261:	69 c0 2d a3 00 00    	imul   $0xa32d,%eax,%eax
  401267:	89 44 24 e4          	mov    %eax,-0x1c(%rsp)
  40126b:	8b 44 24 ec          	mov    -0x14(%rsp),%eax
  40126f:	69 c0 24 b9 00 00    	imul   $0xb924,%eax,%eax
  401275:	89 44 24 ec          	mov    %eax,-0x14(%rsp)
  401279:	8b 44 24 cc          	mov    -0x34(%rsp),%eax
  40127d:	69 c0 8b a2 00 00    	imul   $0xa28b,%eax,%eax
  401283:	89 44 24 cc          	mov    %eax,-0x34(%rsp)
  401287:	8b 44 24 e8          	mov    -0x18(%rsp),%eax
  40128b:	69 c0 6b 05 00 00    	imul   $0x56b,%eax,%eax
  401291:	89 44 24 e8          	mov    %eax,-0x18(%rsp)
  401295:	8b 44 24 dc          	mov    -0x24(%rsp),%eax
  401299:	69 c0 91 b5 00 00    	imul   $0xb591,%eax,%eax
  40129f:	89 44 24 dc          	mov    %eax,-0x24(%rsp)
  4012a3:	8b 44 24 d0          	mov    -0x30(%rsp),%eax
  4012a7:	69 c0 4b 44 00 00    	imul   $0x444b,%eax,%eax
  4012ad:	89 44 24 d0          	mov    %eax,-0x30(%rsp)
  4012b1:	8b 44 24 c8          	mov    -0x38(%rsp),%eax
  4012b5:	69 c0 20 9d 00 00    	imul   $0x9d20,%eax,%eax
  4012bb:	89 44 24 c8          	mov    %eax,-0x38(%rsp)
  4012bf:	8b 44 24 dc          	mov    -0x24(%rsp),%eax
  4012c3:	69 c0 dd 82 00 00    	imul   $0x82dd,%eax,%eax
  4012c9:	89 44 24 dc          	mov    %eax,-0x24(%rsp)
  4012cd:	8b 44 24 cc          	mov    -0x34(%rsp),%eax
  4012d1:	69 c0 ed ed 00 00    	imul   $0xeded,%eax,%eax
  4012d7:	89 44 24 cc          	mov    %eax,-0x34(%rsp)
  4012db:	8b 44 24 e8          	mov    -0x18(%rsp),%eax
  4012df:	69 c0 a3 75 00 00    	imul   $0x75a3,%eax,%eax
  4012e5:	89 44 24 e8          	mov    %eax,-0x18(%rsp)
  4012e9:	8b 44 24 ec          	mov    -0x14(%rsp),%eax
  4012ed:	69 c0 31 cd 00 00    	imul   $0xcd31,%eax,%eax
  4012f3:	89 44 24 ec          	mov    %eax,-0x14(%rsp)
  4012f7:	8b 44 24 d0          	mov    -0x30(%rsp),%eax
  4012fb:	69 c0 5c 76 00 00    	imul   $0x765c,%eax,%eax
  401301:	89 44 24 d0          	mov    %eax,-0x30(%rsp)
  401305:	8b 44 24 e8          	mov    -0x18(%rsp),%eax
  401309:	69 c0 b9 f1 00 00    	imul   $0xf1b9,%eax,%eax
  40130f:	89 44 24 e8          	mov    %eax,-0x18(%rsp)
  401313:	8b 44 24 d8          	mov    -0x28(%rsp),%eax
  401317:	69 c0 cd 04 00 00    	imul   $0x4cd,%eax,%eax
  40131d:	89 44 24 d8          	mov    %eax,-0x28(%rsp)
  401321:	8b 44 24 dc          	mov    -0x24(%rsp),%eax
  401325:	69 c0 7a 04 00 00    	imul   $0x47a,%eax,%eax
  40132b:	89 44 24 dc          	mov    %eax,-0x24(%rsp)
  40132f:	8b 44 24 d8          	mov    -0x28(%rsp),%eax
  401333:	69 c0 37 bd 00 00    	imul   $0xbd37,%eax,%eax
  401339:	89 44 24 d8          	mov    %eax,-0x28(%rsp)
  40133d:	8b 44 24 e0          	mov    -0x20(%rsp),%eax
  401341:	69 c0 0e c8 00 00    	imul   $0xc80e,%eax,%eax
  401347:	89 44 24 e0          	mov    %eax,-0x20(%rsp)
  40134b:	8b 44 24 cc          	mov    -0x34(%rsp),%eax
  40134f:	69 c0 3d 60 00 00    	imul   $0x603d,%eax,%eax
  401355:	89 44 24 cc          	mov    %eax,-0x34(%rsp)
  401359:	8b 44 24 d0          	mov    -0x30(%rsp),%eax
  40135d:	69 c0 bb 1c 00 00    	imul   $0x1cbb,%eax,%eax
  401363:	89 44 24 d0          	mov    %eax,-0x30(%rsp)
  401367:	8b 44 24 d8          	mov    -0x28(%rsp),%eax
  40136b:	69 c0 b9 e3 00 00    	imul   $0xe3b9,%eax,%eax
  401371:	89 44 24 d8          	mov    %eax,-0x28(%rsp)
  401375:	8b 44 24 d0          	mov    -0x30(%rsp),%eax
  401379:	69 c0 1f fb 00 00    	imul   $0xfb1f,%eax,%eax
  40137f:	89 44 24 d0          	mov    %eax,-0x30(%rsp)
  401383:	8b 44 24 e0          	mov    -0x20(%rsp),%eax
  401387:	69 c0 ac 9d 00 00    	imul   $0x9dac,%eax,%eax
  40138d:	89 44 24 e0          	mov    %eax,-0x20(%rsp)
  401391:	8b 44 24 dc          	mov    -0x24(%rsp),%eax
  401395:	69 c0 50 9c 00 00    	imul   $0x9c50,%eax,%eax
  40139b:	89 44 24 dc          	mov    %eax,-0x24(%rsp)
  40139f:	8b 44 24 d8          	mov    -0x28(%rsp),%eax
  4013a3:	69 c0 fb fe 00 00    	imul   $0xfefb,%eax,%eax
  4013a9:	89 44 24 d8          	mov    %eax,-0x28(%rsp)
  4013ad:	8b 44 24 d8          	mov    -0x28(%rsp),%eax
  4013b1:	69 c0 4e 90 00 00    	imul   $0x904e,%eax,%eax
  4013b7:	89 44 24 d8          	mov    %eax,-0x28(%rsp)
  4013bb:	8b 44 24 d0          	mov    -0x30(%rsp),%eax
  4013bf:	69 c0 de 7b 00 00    	imul   $0x7bde,%eax,%eax
  4013c5:	89 44 24 d0          	mov    %eax,-0x30(%rsp)
  4013c9:	8b 44 24 e8          	mov    -0x18(%rsp),%eax
  4013cd:	69 c0 52 6f 00 00    	imul   $0x6f52,%eax,%eax
  4013d3:	89 44 24 e8          	mov    %eax,-0x18(%rsp)
  4013d7:	8b 44 24 dc          	mov    -0x24(%rsp),%eax
  4013db:	69 c0 ee 29 00 00    	imul   $0x29ee,%eax,%eax
  4013e1:	89 44 24 dc          	mov    %eax,-0x24(%rsp)
  4013e5:	8b 44 24 cc          	mov    -0x34(%rsp),%eax
  4013e9:	69 c0 da 58 00 00    	imul   $0x58da,%eax,%eax
  4013ef:	89 44 24 cc          	mov    %eax,-0x34(%rsp)
  4013f3:	8b 44 24 c8          	mov    -0x38(%rsp),%eax
  4013f7:	69 c0 8d 38 00 00    	imul   $0x388d,%eax,%eax
  4013fd:	89 44 24 c8          	mov    %eax,-0x38(%rsp)
  401401:	8b 44 24 c8          	mov    -0x38(%rsp),%eax
  401405:	69 c0 e0 ef 00 00    	imul   $0xefe0,%eax,%eax
  40140b:	89 44 24 c8          	mov    %eax,-0x38(%rsp)
  40140f:	8b 44 24 c8          	mov    -0x38(%rsp),%eax
  401413:	69 c0 fc 04 00 00    	imul   $0x4fc,%eax,%eax
  401419:	89 44 24 c8          	mov    %eax,-0x38(%rsp)
  40141d:	8b 44 24 cc          	mov    -0x34(%rsp),%eax
  401421:	69 c0 20 6c 00 00    	imul   $0x6c20,%eax,%eax
  401427:	89 44 24 cc          	mov    %eax,-0x34(%rsp)
  40142b:	8b 44 24 e8          	mov    -0x18(%rsp),%eax
  40142f:	69 c0 87 22 00 00    	imul   $0x2287,%eax,%eax
  401435:	89 44 24 e8          	mov    %eax,-0x18(%rsp)
  401439:	8b 44 24 d0          	mov    -0x30(%rsp),%eax
  40143d:	69 c0 e2 ca 00 00    	imul   $0xcae2,%eax,%eax
  401443:	89 44 24 d0          	mov    %eax,-0x30(%rsp)
  401447:	8b 44 24 dc          	mov    -0x24(%rsp),%eax
  40144b:	69 c0 28 5b 00 00    	imul   $0x5b28,%eax,%eax
  401451:	89 44 24 dc          	mov    %eax,-0x24(%rsp)
  401455:	8b 44 24 dc          	mov    -0x24(%rsp),%eax
  401459:	69 c0 44 2e 00 00    	imul   $0x2e44,%eax,%eax
  40145f:	89 44 24 dc          	mov    %eax,-0x24(%rsp)
  401463:	8b 44 24 ec          	mov    -0x14(%rsp),%eax
  401467:	69 c0 41 5e 00 00    	imul   $0x5e41,%eax,%eax
  40146d:	89 44 24 ec          	mov    %eax,-0x14(%rsp)
  401471:	8b 44 24 e0          	mov    -0x20(%rsp),%eax
  401475:	69 c0 5e 19 00 00    	imul   $0x195e,%eax,%eax
  40147b:	89 44 24 e0          	mov    %eax,-0x20(%rsp)
  40147f:	8b 44 24 ec          	mov    -0x14(%rsp),%eax
  401483:	69 c0 d3 54 00 00    	imul   $0x54d3,%eax,%eax
  401489:	89 44 24 ec          	mov    %eax,-0x14(%rsp)
  40148d:	8b 44 24 e4          	mov    -0x1c(%rsp),%eax
  401491:	69 c0 db d1 00 00    	imul   $0xd1db,%eax,%eax
  401497:	89 44 24 e4          	mov    %eax,-0x1c(%rsp)
  40149b:	8b 44 24 ec          	mov    -0x14(%rsp),%eax
  40149f:	69 c0 2d 07 00 00    	imul   $0x72d,%eax,%eax
  4014a5:	89 44 24 ec          	mov    %eax,-0x14(%rsp)
  4014a9:	8b 44 24 ec          	mov    -0x14(%rsp),%eax
  4014ad:	69 c0 eb c2 00 00    	imul   $0xc2eb,%eax,%eax
  4014b3:	89 44 24 ec          	mov    %eax,-0x14(%rsp)
  4014b7:	8b 44 24 cc          	mov    -0x34(%rsp),%eax
  4014bb:	69 c0 38 a2 00 00    	imul   $0xa238,%eax,%eax
  4014c1:	89 44 24 cc          	mov    %eax,-0x34(%rsp)
  4014c5:	8b 44 24 e4          	mov    -0x1c(%rsp),%eax
  4014c9:	69 c0 d6 5f 00 00    	imul   $0x5fd6,%eax,%eax
  4014cf:	89 44 24 e4          	mov    %eax,-0x1c(%rsp)
  4014d3:	8b 44 24 c8          	mov    -0x38(%rsp),%eax
  4014d7:	69 c0 19 79 00 00    	imul   $0x7919,%eax,%eax
  4014dd:	89 44 24 c8          	mov    %eax,-0x38(%rsp)
  4014e1:	8b 44 24 c8          	mov    -0x38(%rsp),%eax
  4014e5:	69 c0 89 d0 00 00    	imul   $0xd089,%eax,%eax
  4014eb:	89 44 24 c8          	mov    %eax,-0x38(%rsp)
  4014ef:	8b 44 24 e0          	mov    -0x20(%rsp),%eax
  4014f3:	69 c0 a4 07 00 00    	imul   $0x7a4,%eax,%eax
  4014f9:	89 44 24 e0          	mov    %eax,-0x20(%rsp)
  4014fd:	8b 44 24 d4          	mov    -0x2c(%rsp),%eax
  401501:	69 c0 4f e3 00 00    	imul   $0xe34f,%eax,%eax
  401507:	89 44 24 d4          	mov    %eax,-0x2c(%rsp)
  40150b:	8b 44 24 e4          	mov    -0x1c(%rsp),%eax
  40150f:	69 c0 86 c5 00 00    	imul   $0xc586,%eax,%eax
  401515:	89 44 24 e4          	mov    %eax,-0x1c(%rsp)
  401519:	8b 44 24 c8          	mov    -0x38(%rsp),%eax
  40151d:	69 c0 6b 30 00 00    	imul   $0x306b,%eax,%eax
  401523:	89 44 24 c8          	mov    %eax,-0x38(%rsp)
  401527:	8b 44 24 cc          	mov    -0x34(%rsp),%eax
  40152b:	69 c0 33 74 00 00    	imul   $0x7433,%eax,%eax
  401531:	89 44 24 cc          	mov    %eax,-0x34(%rsp)
  401535:	8b 44 24 e8          	mov    -0x18(%rsp),%eax
  401539:	69 c0 83 19 00 00    	imul   $0x1983,%eax,%eax
  40153f:	89 44 24 e8          	mov    %eax,-0x18(%rsp)
  401543:	8b 44 24 e8          	mov    -0x18(%rsp),%eax
  401547:	69 c0 44 29 00 00    	imul   $0x2944,%eax,%eax
  40154d:	89 44 24 e8          	mov    %eax,-0x18(%rsp)
  401551:	8b 44 24 dc          	mov    -0x24(%rsp),%eax
  401555:	69 c0 b1 2f 00 00    	imul   $0x2fb1,%eax,%eax
  40155b:	89 44 24 dc          	mov    %eax,-0x24(%rsp)
  40155f:	8b 44 24 c8          	mov    -0x38(%rsp),%eax
  401563:	69 c0 8f dc 00 00    	imul   $0xdc8f,%eax,%eax
  401569:	89 44 24 c8          	mov    %eax,-0x38(%rsp)
  40156d:	8b 44 24 d0          	mov    -0x30(%rsp),%eax
  401571:	69 c0 c8 4e 00 00    	imul   $0x4ec8,%eax,%eax
  401577:	89 44 24 d0          	mov    %eax,-0x30(%rsp)
  40157b:	8b 44 24 e4          	mov    -0x1c(%rsp),%eax
  40157f:	69 c0 b9 42 00 00    	imul   $0x42b9,%eax,%eax
  401585:	89 44 24 e4          	mov    %eax,-0x1c(%rsp)
  401589:	8b 44 24 ec          	mov    -0x14(%rsp),%eax
  40158d:	69 c0 d7 14 00 00    	imul   $0x14d7,%eax,%eax
  401593:	89 44 24 ec          	mov    %eax,-0x14(%rsp)
  401597:	8b 44 24 e4          	mov    -0x1c(%rsp),%eax
  40159b:	69 c0 78 2d 00 00    	imul   $0x2d78,%eax,%eax
  4015a1:	89 44 24 e4          	mov    %eax,-0x1c(%rsp)
  4015a5:	8b 44 24 e0          	mov    -0x20(%rsp),%eax
  4015a9:	69 c0 b6 bf 00 00    	imul   $0xbfb6,%eax,%eax
  4015af:	89 44 24 e0          	mov    %eax,-0x20(%rsp)
  4015b3:	8b 44 24 d4          	mov    -0x2c(%rsp),%eax
  4015b7:	69 c0 63 c4 00 00    	imul   $0xc463,%eax,%eax
  4015bd:	89 44 24 d4          	mov    %eax,-0x2c(%rsp)
  4015c1:	8b 44 24 ec          	mov    -0x14(%rsp),%eax
  4015c5:	69 c0 a8 24 00 00    	imul   $0x24a8,%eax,%eax
  4015cb:	89 44 24 ec          	mov    %eax,-0x14(%rsp)
  4015cf:	8b 44 24 ec          	mov    -0x14(%rsp),%eax
  4015d3:	69 c0 e9 cc 00 00    	imul   $0xcce9,%eax,%eax
  4015d9:	89 44 24 ec          	mov    %eax,-0x14(%rsp)
  4015dd:	8b 44 24 dc          	mov    -0x24(%rsp),%eax
  4015e1:	69 c0 32 f6 00 00    	imul   $0xf632,%eax,%eax
  4015e7:	89 44 24 dc          	mov    %eax,-0x24(%rsp)
  4015eb:	8b 44 24 ec          	mov    -0x14(%rsp),%eax
  4015ef:	69 c0 29 b6 00 00    	imul   $0xb629,%eax,%eax
  4015f5:	89 44 24 ec          	mov    %eax,-0x14(%rsp)
  4015f9:	8b 44 24 d8          	mov    -0x28(%rsp),%eax
  4015fd:	69 c0 1e b3 00 00    	imul   $0xb31e,%eax,%eax
  401603:	89 44 24 d8          	mov    %eax,-0x28(%rsp)
  401607:	8b 44 24 dc          	mov    -0x24(%rsp),%eax
  40160b:	69 c0 4c 85 00 00    	imul   $0x854c,%eax,%eax
  401611:	89 44 24 dc          	mov    %eax,-0x24(%rsp)
  401615:	8b 44 24 d4          	mov    -0x2c(%rsp),%eax
  401619:	69 c0 d0 fc 00 00    	imul   $0xfcd0,%eax,%eax
  40161f:	89 44 24 d4          	mov    %eax,-0x2c(%rsp)
  401623:	8b 44 24 cc          	mov    -0x34(%rsp),%eax
  401627:	69 c0 83 ff 00 00    	imul   $0xff83,%eax,%eax
  40162d:	89 44 24 cc          	mov    %eax,-0x34(%rsp)
  401631:	8b 44 24 d8          	mov    -0x28(%rsp),%eax
  401635:	69 c0 a8 2c 00 00    	imul   $0x2ca8,%eax,%eax
  40163b:	89 44 24 d8          	mov    %eax,-0x28(%rsp)
  40163f:	ba 00 00 00 00       	mov    $0x0,%edx
  401644:	b8 00 00 00 00       	mov    $0x0,%eax
  401649:	89 d1                	mov    %edx,%ecx
  40164b:	8b 4c 8c c8          	mov    -0x38(%rsp,%rcx,4),%ecx
  40164f:	01 c8                	add    %ecx,%eax
  401651:	83 c2 01             	add    $0x1,%edx
  401654:	83 fa 0a             	cmp    $0xa,%edx
  401657:	75 f0                	jne    401649 <scramble+0x421>
  401659:	f3 c3                	repz retq 
  40165b:	90                   	nop

000000000040165c <getbuf>:
  40165c:	48 83 ec 18          	sub    $0x18,%rsp
  401660:	48 89 e7             	mov    %rsp,%rdi
  401663:	e8 13 08 00 00       	callq  401e7b <Gets>
  401668:	b8 01 00 00 00       	mov    $0x1,%eax
  40166d:	48 83 c4 18          	add    $0x18,%rsp
  401671:	c3                   	retq   
  401672:	90                   	nop
  401673:	90                   	nop

0000000000401674 <test>:
  401674:	48 83 ec 08          	sub    $0x8,%rsp
  401678:	b8 00 00 00 00       	mov    $0x0,%eax
  40167d:	e8 da ff ff ff       	callq  40165c <getbuf>
  401682:	89 c6                	mov    %eax,%esi
  401684:	bf c0 2d 40 00       	mov    $0x402dc0,%edi
  401689:	b8 00 00 00 00       	mov    $0x0,%eax
  40168e:	e8 ed f4 ff ff       	callq  400b80 <printf@plt>
  401693:	48 83 c4 08          	add    $0x8,%rsp
  401697:	c3                   	retq   

0000000000401698 <touch2>:
  401698:	48 83 ec 08          	sub    $0x8,%rsp
  40169c:	89 fe                	mov    %edi,%esi
  40169e:	c7 05 24 30 20 00 02 	movl   $0x2,0x203024(%rip)        # 6046cc <vlevel>
  4016a5:	00 00 00 
  4016a8:	3b 3d 16 30 20 00    	cmp    0x203016(%rip),%edi        # 6046c4 <cookie>
  4016ae:	75 1b                	jne    4016cb <touch2+0x33>
  4016b0:	bf e8 2d 40 00       	mov    $0x402de8,%edi
  4016b5:	b8 00 00 00 00       	mov    $0x0,%eax
  4016ba:	e8 c1 f4 ff ff       	callq  400b80 <printf@plt>
  4016bf:	bf 02 00 00 00       	mov    $0x2,%edi
  4016c4:	e8 df 06 00 00       	callq  401da8 <validate>
  4016c9:	eb 19                	jmp    4016e4 <touch2+0x4c>
  4016cb:	bf 10 2e 40 00       	mov    $0x402e10,%edi
  4016d0:	b8 00 00 00 00       	mov    $0x0,%eax
  4016d5:	e8 a6 f4 ff ff       	callq  400b80 <printf@plt>
  4016da:	bf 02 00 00 00       	mov    $0x2,%edi
  4016df:	e8 9a 06 00 00       	callq  401d7e <fail>
  4016e4:	bf 00 00 00 00       	mov    $0x0,%edi
  4016e9:	e8 f2 f4 ff ff       	callq  400be0 <exit@plt>

00000000004016ee <hexmatch>:
  4016ee:	48 89 5c 24 e8       	mov    %rbx,-0x18(%rsp)
  4016f3:	48 89 6c 24 f0       	mov    %rbp,-0x10(%rsp)
  4016f8:	4c 89 64 24 f8       	mov    %r12,-0x8(%rsp)
  4016fd:	48 81 ec 88 00 00 00 	sub    $0x88,%rsp
  401704:	89 fd                	mov    %edi,%ebp
  401706:	49 89 f4             	mov    %rsi,%r12
  401709:	e8 22 f6 ff ff       	callq  400d30 <random@plt>
  40170e:	48 89 c1             	mov    %rax,%rcx
  401711:	48 ba 0b d7 a3 70 3d 	mov    $0xa3d70a3d70a3d70b,%rdx
  401718:	0a d7 a3 
  40171b:	48 f7 ea             	imul   %rdx
  40171e:	48 01 ca             	add    %rcx,%rdx
  401721:	48 c1 fa 06          	sar    $0x6,%rdx
  401725:	48 89 c8             	mov    %rcx,%rax
  401728:	48 c1 f8 3f          	sar    $0x3f,%rax
  40172c:	48 29 c2             	sub    %rax,%rdx
  40172f:	48 8d 04 92          	lea    (%rdx,%rdx,4),%rax
  401733:	48 8d 04 80          	lea    (%rax,%rax,4),%rax
  401737:	48 c1 e0 02          	shl    $0x2,%rax
  40173b:	48 29 c1             	sub    %rax,%rcx
  40173e:	48 8d 1c 0c          	lea    (%rsp,%rcx,1),%rbx
  401742:	89 ea                	mov    %ebp,%edx
  401744:	be 82 2e 40 00       	mov    $0x402e82,%esi
  401749:	48 89 df             	mov    %rbx,%rdi
  40174c:	b8 00 00 00 00       	mov    $0x0,%eax
  401751:	e8 2a f5 ff ff       	callq  400c80 <sprintf@plt>
  401756:	ba 09 00 00 00       	mov    $0x9,%edx
  40175b:	48 89 de             	mov    %rbx,%rsi
  40175e:	4c 89 e7             	mov    %r12,%rdi
  401761:	e8 ba f4 ff ff       	callq  400c20 <strncmp@plt>
  401766:	85 c0                	test   %eax,%eax
  401768:	0f 94 c0             	sete   %al
  40176b:	0f b6 c0             	movzbl %al,%eax
  40176e:	48 8b 5c 24 70       	mov    0x70(%rsp),%rbx
  401773:	48 8b 6c 24 78       	mov    0x78(%rsp),%rbp
  401778:	4c 8b a4 24 80 00 00 	mov    0x80(%rsp),%r12
  40177f:	00 
  401780:	48 81 c4 88 00 00 00 	add    $0x88,%rsp
  401787:	c3                   	retq   

0000000000401788 <touch3>:
  401788:	53                   	push   %rbx
  401789:	48 89 fb             	mov    %rdi,%rbx
  40178c:	c7 05 36 2f 20 00 03 	movl   $0x3,0x202f36(%rip)        # 6046cc <vlevel>
  401793:	00 00 00 
  401796:	48 89 fe             	mov    %rdi,%rsi
  401799:	8b 3d 25 2f 20 00    	mov    0x202f25(%rip),%edi        # 6046c4 <cookie>
  40179f:	e8 4a ff ff ff       	callq  4016ee <hexmatch>
  4017a4:	85 c0                	test   %eax,%eax
  4017a6:	74 1e                	je     4017c6 <touch3+0x3e>
  4017a8:	48 89 de             	mov    %rbx,%rsi
  4017ab:	bf 38 2e 40 00       	mov    $0x402e38,%edi
  4017b0:	b8 00 00 00 00       	mov    $0x0,%eax
  4017b5:	e8 c6 f3 ff ff       	callq  400b80 <printf@plt>
  4017ba:	bf 03 00 00 00       	mov    $0x3,%edi
  4017bf:	e8 e4 05 00 00       	callq  401da8 <validate>
  4017c4:	eb 1c                	jmp    4017e2 <touch3+0x5a>
  4017c6:	48 89 de             	mov    %rbx,%rsi
  4017c9:	bf 60 2e 40 00       	mov    $0x402e60,%edi
  4017ce:	b8 00 00 00 00       	mov    $0x0,%eax
  4017d3:	e8 a8 f3 ff ff       	callq  400b80 <printf@plt>
  4017d8:	bf 03 00 00 00       	mov    $0x3,%edi
  4017dd:	e8 9c 05 00 00       	callq  401d7e <fail>
  4017e2:	bf 00 00 00 00       	mov    $0x0,%edi
  4017e7:	e8 f4 f3 ff ff       	callq  400be0 <exit@plt>

00000000004017ec <touch1>:
  4017ec:	48 83 ec 08          	sub    $0x8,%rsp
  4017f0:	c7 05 d2 2e 20 00 01 	movl   $0x1,0x202ed2(%rip)        # 6046cc <vlevel>
  4017f7:	00 00 00 
  4017fa:	bf 87 2e 40 00       	mov    $0x402e87,%edi
  4017ff:	e8 bc f3 ff ff       	callq  400bc0 <puts@plt>
  401804:	bf 01 00 00 00       	mov    $0x1,%edi
  401809:	e8 9a 05 00 00       	callq  401da8 <validate>
  40180e:	bf 00 00 00 00       	mov    $0x0,%edi
  401813:	e8 c8 f3 ff ff       	callq  400be0 <exit@plt>

0000000000401818 <start_farm>:
  401818:	b8 01 00 00 00       	mov    $0x1,%eax
  40181d:	c3                   	retq   

000000000040181e <getval_121>:
  40181e:	b8 d7 58 90 c3       	mov    $0xc39058d7,%eax
  401823:	c3                   	retq   

0000000000401824 <addval_365>:
  401824:	8d 87 64 29 58 90    	lea    -0x6fa7d69c(%rdi),%eax
  40182a:	c3                   	retq   

000000000040182b <addval_155>:
  40182b:	8d 87 48 89 c7 c3    	lea    -0x3c3876b8(%rdi),%eax
  401831:	c3                   	retq   

0000000000401832 <setval_451>:
  401832:	c7 07 48 89 c7 c7    	movl   $0xc7c78948,(%rdi)
  401838:	c3                   	retq   

0000000000401839 <addval_197>:
  401839:	8d 87 58 91 90 90    	lea    -0x6f6f6ea8(%rdi),%eax
  40183f:	c3                   	retq   

0000000000401840 <getval_100>:
  401840:	b8 48 81 c7 90       	mov    $0x90c78148,%eax
  401845:	c3                   	retq   

0000000000401846 <addval_354>:
  401846:	8d 87 48 89 c7 90    	lea    -0x6f3876b8(%rdi),%eax
  40184c:	c3                   	retq   

000000000040184d <setval_400>:
  40184d:	c7 07 eb 18 90 90    	movl   $0x909018eb,(%rdi)
  401853:	c3                   	retq   

0000000000401854 <mid_farm>:
  401854:	b8 01 00 00 00       	mov    $0x1,%eax
  401859:	c3                   	retq   

000000000040185a <add_xy>:
  40185a:	48 8d 04 3e          	lea    (%rsi,%rdi,1),%rax
  40185e:	c3                   	retq   

000000000040185f <setval_444>:
  40185f:	c7 07 89 ca 60 c0    	movl   $0xc060ca89,(%rdi)
  401865:	c3                   	retq   

0000000000401866 <getval_494>:
  401866:	b8 89 c1 90 c3       	mov    $0xc390c189,%eax
  40186b:	c3                   	retq   

000000000040186c <setval_397>:
  40186c:	c7 07 89 d6 90 c3    	movl   $0xc390d689,(%rdi)
  401872:	c3                   	retq   

0000000000401873 <getval_152>:
  401873:	b8 89 d6 18 d2       	mov    $0xd218d689,%eax
  401878:	c3                   	retq   

0000000000401879 <addval_487>:
  401879:	8d 87 81 d6 c3 73    	lea    0x73c3d681(%rdi),%eax
  40187f:	c3                   	retq   

0000000000401880 <setval_332>:
  401880:	c7 07 8d d6 08 d2    	movl   $0xd208d68d,(%rdi)
  401886:	c3                   	retq   

0000000000401887 <addval_173>:
  401887:	8d 87 db 48 89 e0    	lea    -0x1f76b725(%rdi),%eax
  40188d:	c3                   	retq   

000000000040188e <getval_377>:
  40188e:	b8 a9 ca c3 1f       	mov    $0x1fc3caa9,%eax
  401893:	c3                   	retq   

0000000000401894 <addval_382>:
  401894:	8d 87 81 ca 20 c0    	lea    -0x3fdf357f(%rdi),%eax
  40189a:	c3                   	retq   

000000000040189b <setval_326>:
  40189b:	c7 07 e1 8d ca c3    	movl   $0xc3ca8de1,(%rdi)
  4018a1:	c3                   	retq   

00000000004018a2 <getval_416>:
  4018a2:	b8 48 89 e0 c7       	mov    $0xc7e08948,%eax
  4018a7:	c3                   	retq   

00000000004018a8 <setval_159>:
  4018a8:	c7 07 90 c8 89 e0    	movl   $0xe089c890,(%rdi)
  4018ae:	c3                   	retq   

00000000004018af <getval_129>:
  4018af:	b8 89 ca 90 c3       	mov    $0xc390ca89,%eax
  4018b4:	c3                   	retq   

00000000004018b5 <getval_103>:
  4018b5:	b8 89 ca 90 90       	mov    $0x9090ca89,%eax
  4018ba:	c3                   	retq   

00000000004018bb <addval_483>:
  4018bb:	8d 87 87 89 c1 92    	lea    -0x6d3e7679(%rdi),%eax
  4018c1:	c3                   	retq   

00000000004018c2 <getval_280>:
  4018c2:	b8 99 c1 08 db       	mov    $0xdb08c199,%eax
  4018c7:	c3                   	retq   

00000000004018c8 <setval_190>:
  4018c8:	c7 07 48 89 e0 91    	movl   $0x91e08948,(%rdi)
  4018ce:	c3                   	retq   

00000000004018cf <addval_248>:
  4018cf:	8d 87 23 89 d6 92    	lea    -0x6d2976dd(%rdi),%eax
  4018d5:	c3                   	retq   

00000000004018d6 <setval_285>:
  4018d6:	c7 07 8b c1 90 90    	movl   $0x9090c18b,(%rdi)
  4018dc:	c3                   	retq   

00000000004018dd <setval_469>:
  4018dd:	c7 07 48 89 e0 91    	movl   $0x91e08948,(%rdi)
  4018e3:	c3                   	retq   

00000000004018e4 <addval_357>:
  4018e4:	8d 87 48 89 e0 92    	lea    -0x6d1f76b8(%rdi),%eax
  4018ea:	c3                   	retq   

00000000004018eb <getval_353>:
  4018eb:	b8 89 c1 84 d2       	mov    $0xd284c189,%eax
  4018f0:	c3                   	retq   

00000000004018f1 <addval_441>:
  4018f1:	8d 87 c9 d6 84 c0    	lea    -0x3f7b2937(%rdi),%eax
  4018f7:	c3                   	retq   

00000000004018f8 <setval_428>:
  4018f8:	c7 07 c9 c1 38 c0    	movl   $0xc038c1c9,(%rdi)
  4018fe:	c3                   	retq   

00000000004018ff <addval_307>:
  4018ff:	8d 87 48 89 e0 c3    	lea    -0x3c1f76b8(%rdi),%eax
  401905:	c3                   	retq   

0000000000401906 <getval_460>:
  401906:	b8 89 c1 28 c0       	mov    $0xc028c189,%eax
  40190b:	c3                   	retq   

000000000040190c <setval_435>:
  40190c:	c7 07 89 d6 08 db    	movl   $0xdb08d689,(%rdi)
  401912:	c3                   	retq   

0000000000401913 <addval_106>:
  401913:	8d 87 89 c1 60 db    	lea    -0x249f3e77(%rdi),%eax
  401919:	c3                   	retq   

000000000040191a <getval_442>:
  40191a:	b8 8b ca 20 c9       	mov    $0xc920ca8b,%eax
  40191f:	c3                   	retq   

0000000000401920 <addval_202>:
  401920:	8d 87 49 89 e0 90    	lea    -0x6f1f76b7(%rdi),%eax
  401926:	c3                   	retq   

0000000000401927 <addval_493>:
  401927:	8d 87 89 ca 91 90    	lea    -0x6f6e3577(%rdi),%eax
  40192d:	c3                   	retq   

000000000040192e <getval_252>:
  40192e:	b8 89 d6 94 c3       	mov    $0xc394d689,%eax
  401933:	c3                   	retq   

0000000000401934 <end_farm>:
  401934:	b8 01 00 00 00       	mov    $0x1,%eax
  401939:	c3                   	retq   
  40193a:	90                   	nop
  40193b:	90                   	nop
  40193c:	90                   	nop
  40193d:	90                   	nop
  40193e:	90                   	nop
  40193f:	90                   	nop

0000000000401940 <check_fail>:
  401940:	48 83 ec 08          	sub    $0x8,%rsp
  401944:	0f be 35 b9 39 20 00 	movsbl 0x2039b9(%rip),%esi        # 605304 <target_prefix>
  40194b:	b9 00 47 60 00       	mov    $0x604700,%ecx
  401950:	8b 15 7a 2d 20 00    	mov    0x202d7a(%rip),%edx        # 6046d0 <check_level>
  401956:	bf a4 2e 40 00       	mov    $0x402ea4,%edi
  40195b:	b8 00 00 00 00       	mov    $0x0,%eax
  401960:	e8 1b f2 ff ff       	callq  400b80 <printf@plt>
  401965:	bf 01 00 00 00       	mov    $0x1,%edi
  40196a:	e8 71 f2 ff ff       	callq  400be0 <exit@plt>

000000000040196f <launch>:
  40196f:	55                   	push   %rbp
  401970:	48 89 e5             	mov    %rsp,%rbp
  401973:	48 89 fa             	mov    %rdi,%rdx
  401976:	48 8d 47 1e          	lea    0x1e(%rdi),%rax
  40197a:	48 83 e0 f0          	and    $0xfffffffffffffff0,%rax
  40197e:	48 29 c4             	sub    %rax,%rsp
  401981:	48 8d 7c 24 0f       	lea    0xf(%rsp),%rdi
  401986:	48 83 e7 f0          	and    $0xfffffffffffffff0,%rdi
  40198a:	be f4 00 00 00       	mov    $0xf4,%esi
  40198f:	e8 fc f1 ff ff       	callq  400b90 <memset@plt>
  401994:	48 8b 05 e5 2c 20 00 	mov    0x202ce5(%rip),%rax        # 604680 <stdin@@GLIBC_2.2.5>
  40199b:	48 39 05 36 2d 20 00 	cmp    %rax,0x202d36(%rip)        # 6046d8 <infile>
  4019a2:	75 0f                	jne    4019b3 <launch+0x44>
  4019a4:	bf ba 2e 40 00       	mov    $0x402eba,%edi
  4019a9:	b8 00 00 00 00       	mov    $0x0,%eax
  4019ae:	e8 cd f1 ff ff       	callq  400b80 <printf@plt>
  4019b3:	c7 05 0f 2d 20 00 00 	movl   $0x0,0x202d0f(%rip)        # 6046cc <vlevel>
  4019ba:	00 00 00 
  4019bd:	b8 00 00 00 00       	mov    $0x0,%eax
  4019c2:	e8 ad fc ff ff       	callq  401674 <test>
  4019c7:	83 3d f2 2c 20 00 00 	cmpl   $0x0,0x202cf2(%rip)        # 6046c0 <is_checker>
  4019ce:	74 16                	je     4019e6 <launch+0x77>
  4019d0:	bf c7 2e 40 00       	mov    $0x402ec7,%edi
  4019d5:	e8 e6 f1 ff ff       	callq  400bc0 <puts@plt>
  4019da:	b8 00 00 00 00       	mov    $0x0,%eax
  4019df:	e8 5c ff ff ff       	callq  401940 <check_fail>
  4019e4:	eb 0a                	jmp    4019f0 <launch+0x81>
  4019e6:	bf d2 2e 40 00       	mov    $0x402ed2,%edi
  4019eb:	e8 d0 f1 ff ff       	callq  400bc0 <puts@plt>
  4019f0:	c9                   	leaveq 
  4019f1:	c3                   	retq   

00000000004019f2 <stable_launch>:
  4019f2:	48 83 ec 08          	sub    $0x8,%rsp
  4019f6:	48 89 3d e3 2c 20 00 	mov    %rdi,0x202ce3(%rip)        # 6046e0 <global_offset>
  4019fd:	41 b9 00 00 00 00    	mov    $0x0,%r9d
  401a03:	41 b8 00 00 00 00    	mov    $0x0,%r8d
  401a09:	b9 32 01 00 00       	mov    $0x132,%ecx
  401a0e:	ba 07 00 00 00       	mov    $0x7,%edx
  401a13:	be 00 00 10 00       	mov    $0x100000,%esi
  401a18:	bf 00 60 58 55       	mov    $0x55586000,%edi
  401a1d:	e8 4e f3 ff ff       	callq  400d70 <mmap@plt>
  401a22:	48 3d 00 60 58 55    	cmp    $0x55586000,%rax
  401a28:	74 32                	je     401a5c <stable_launch+0x6a>
  401a2a:	be 00 00 10 00       	mov    $0x100000,%esi
  401a2f:	48 89 c7             	mov    %rax,%rdi
  401a32:	e8 e9 f2 ff ff       	callq  400d20 <munmap@plt>
  401a37:	ba 00 60 58 55       	mov    $0x55586000,%edx
  401a3c:	be d8 2f 40 00       	mov    $0x402fd8,%esi
  401a41:	48 8b 3d 60 2c 20 00 	mov    0x202c60(%rip),%rdi        # 6046a8 <stderr@@GLIBC_2.2.5>
  401a48:	b8 00 00 00 00       	mov    $0x0,%eax
  401a4d:	e8 ee f2 ff ff       	callq  400d40 <fprintf@plt>
  401a52:	bf 01 00 00 00       	mov    $0x1,%edi
  401a57:	e8 84 f1 ff ff       	callq  400be0 <exit@plt>
  401a5c:	48 c7 05 a1 38 20 00 	movq   $0x55685ff8,0x2038a1(%rip)        # 605308 <stack_top>
  401a63:	f8 5f 68 55 
  401a67:	ba f8 5f 68 55       	mov    $0x55685ff8,%edx
  401a6c:	48 89 e0             	mov    %rsp,%rax
  401a6f:	48 89 d4             	mov    %rdx,%rsp
  401a72:	48 89 c2             	mov    %rax,%rdx
  401a75:	48 89 15 6c 2c 20 00 	mov    %rdx,0x202c6c(%rip)        # 6046e8 <global_save_stack>
  401a7c:	48 8b 3d 5d 2c 20 00 	mov    0x202c5d(%rip),%rdi        # 6046e0 <global_offset>
  401a83:	e8 e7 fe ff ff       	callq  40196f <launch>
  401a88:	48 8b 05 59 2c 20 00 	mov    0x202c59(%rip),%rax        # 6046e8 <global_save_stack>
  401a8f:	48 89 c4             	mov    %rax,%rsp
  401a92:	be 00 00 10 00       	mov    $0x100000,%esi
  401a97:	bf 00 60 58 55       	mov    $0x55586000,%edi
  401a9c:	e8 7f f2 ff ff       	callq  400d20 <munmap@plt>
  401aa1:	48 83 c4 08          	add    $0x8,%rsp
  401aa5:	c3                   	retq   

0000000000401aa6 <notify_server>:
  401aa6:	53                   	push   %rbx
  401aa7:	48 81 ec 10 40 00 00 	sub    $0x4010,%rsp
  401aae:	89 fb                	mov    %edi,%ebx
  401ab0:	83 3d 09 2c 20 00 00 	cmpl   $0x0,0x202c09(%rip)        # 6046c0 <is_checker>
  401ab7:	0f 85 78 01 00 00    	jne    401c35 <notify_server+0x18f>
  401abd:	8b 05 2d 2c 20 00    	mov    0x202c2d(%rip),%eax        # 6046f0 <gets_cnt>
  401ac3:	83 c0 64             	add    $0x64,%eax
  401ac6:	3d 00 20 00 00       	cmp    $0x2000,%eax
  401acb:	7e 19                	jle    401ae6 <notify_server+0x40>
  401acd:	bf 00 30 40 00       	mov    $0x403000,%edi
  401ad2:	b8 00 00 00 00       	mov    $0x0,%eax
  401ad7:	e8 a4 f0 ff ff       	callq  400b80 <printf@plt>
  401adc:	bf 01 00 00 00       	mov    $0x1,%edi
  401ae1:	e8 fa f0 ff ff       	callq  400be0 <exit@plt>
  401ae6:	83 3d 73 2b 20 00 00 	cmpl   $0x0,0x202b73(%rip)        # 604660 <notify>
  401aed:	41 b8 ff ff ff ff    	mov    $0xffffffff,%r8d
  401af3:	44 0f 45 05 cd 2b 20 	cmovne 0x202bcd(%rip),%r8d        # 6046c8 <authkey>
  401afa:	00 
  401afb:	85 ff                	test   %edi,%edi
  401afd:	b8 e0 2e 40 00       	mov    $0x402ee0,%eax
  401b02:	b9 e5 2e 40 00       	mov    $0x402ee5,%ecx
  401b07:	48 0f 44 c8          	cmove  %rax,%rcx
  401b0b:	44 0f be 0d f1 37 20 	movsbl 0x2037f1(%rip),%r9d        # 605304 <target_prefix>
  401b12:	00 
  401b13:	48 8d bc 24 10 20 00 	lea    0x2010(%rsp),%rdi
  401b1a:	00 
  401b1b:	48 c7 44 24 08 00 47 	movq   $0x604700,0x8(%rsp)
  401b22:	60 00 
  401b24:	89 34 24             	mov    %esi,(%rsp)
  401b27:	8b 15 1b 2b 20 00    	mov    0x202b1b(%rip),%edx        # 604648 <target_id>
  401b2d:	be ea 2e 40 00       	mov    $0x402eea,%esi
  401b32:	b8 00 00 00 00       	mov    $0x0,%eax
  401b37:	e8 44 f1 ff ff       	callq  400c80 <sprintf@plt>
  401b3c:	83 3d 1d 2b 20 00 00 	cmpl   $0x0,0x202b1d(%rip)        # 604660 <notify>
  401b43:	74 78                	je     401bbd <notify_server+0x117>
  401b45:	85 db                	test   %ebx,%ebx
  401b47:	74 68                	je     401bb1 <notify_server+0x10b>
  401b49:	48 8d 8c 24 10 20 00 	lea    0x2010(%rsp),%rcx
  401b50:	00 
  401b51:	4c 8d 4c 24 10       	lea    0x10(%rsp),%r9
  401b56:	41 b8 00 00 00 00    	mov    $0x0,%r8d
  401b5c:	48 8b 15 dd 2a 20 00 	mov    0x202add(%rip),%rdx        # 604640 <lab>
  401b63:	48 8b 35 96 27 20 00 	mov    0x202796(%rip),%rsi        # 604300 <course>
  401b6a:	48 8b 3d df 2a 20 00 	mov    0x202adf(%rip),%rdi        # 604650 <user_id>
  401b71:	e8 26 0d 00 00       	callq  40289c <driver_post>
  401b76:	85 c0                	test   %eax,%eax
  401b78:	79 1e                	jns    401b98 <notify_server+0xf2>
  401b7a:	48 8d 74 24 10       	lea    0x10(%rsp),%rsi
  401b7f:	bf 06 2f 40 00       	mov    $0x402f06,%edi
  401b84:	b8 00 00 00 00       	mov    $0x0,%eax
  401b89:	e8 f2 ef ff ff       	callq  400b80 <printf@plt>
  401b8e:	bf 01 00 00 00       	mov    $0x1,%edi
  401b93:	e8 48 f0 ff ff       	callq  400be0 <exit@plt>
  401b98:	bf 30 30 40 00       	mov    $0x403030,%edi
  401b9d:	e8 1e f0 ff ff       	callq  400bc0 <puts@plt>
  401ba2:	bf 12 2f 40 00       	mov    $0x402f12,%edi
  401ba7:	e8 14 f0 ff ff       	callq  400bc0 <puts@plt>
  401bac:	e9 84 00 00 00       	jmpq   401c35 <notify_server+0x18f>
  401bb1:	bf 1c 2f 40 00       	mov    $0x402f1c,%edi
  401bb6:	e8 05 f0 ff ff       	callq  400bc0 <puts@plt>
  401bbb:	eb 78                	jmp    401c35 <notify_server+0x18f>
  401bbd:	85 db                	test   %ebx,%ebx
  401bbf:	b8 e0 2e 40 00       	mov    $0x402ee0,%eax
  401bc4:	be e5 2e 40 00       	mov    $0x402ee5,%esi
  401bc9:	48 0f 44 f0          	cmove  %rax,%rsi
  401bcd:	bf 68 30 40 00       	mov    $0x403068,%edi
  401bd2:	b8 00 00 00 00       	mov    $0x0,%eax
  401bd7:	e8 a4 ef ff ff       	callq  400b80 <printf@plt>
  401bdc:	48 8b 35 6d 2a 20 00 	mov    0x202a6d(%rip),%rsi        # 604650 <user_id>
  401be3:	bf 23 2f 40 00       	mov    $0x402f23,%edi
  401be8:	b8 00 00 00 00       	mov    $0x0,%eax
  401bed:	e8 8e ef ff ff       	callq  400b80 <printf@plt>
  401bf2:	48 8b 35 07 27 20 00 	mov    0x202707(%rip),%rsi        # 604300 <course>
  401bf9:	bf 30 2f 40 00       	mov    $0x402f30,%edi
  401bfe:	b8 00 00 00 00       	mov    $0x0,%eax
  401c03:	e8 78 ef ff ff       	callq  400b80 <printf@plt>
  401c08:	48 8b 35 31 2a 20 00 	mov    0x202a31(%rip),%rsi        # 604640 <lab>
  401c0f:	bf 3c 2f 40 00       	mov    $0x402f3c,%edi
  401c14:	b8 00 00 00 00       	mov    $0x0,%eax
  401c19:	e8 62 ef ff ff       	callq  400b80 <printf@plt>
  401c1e:	48 8d b4 24 10 20 00 	lea    0x2010(%rsp),%rsi
  401c25:	00 
  401c26:	bf 45 2f 40 00       	mov    $0x402f45,%edi
  401c2b:	b8 00 00 00 00       	mov    $0x0,%eax
  401c30:	e8 4b ef ff ff       	callq  400b80 <printf@plt>
  401c35:	48 81 c4 10 40 00 00 	add    $0x4010,%rsp
  401c3c:	5b                   	pop    %rbx
  401c3d:	c3                   	retq   

0000000000401c3e <sigalrmhandler>:
  401c3e:	48 83 ec 08          	sub    $0x8,%rsp
  401c42:	83 3d 77 2a 20 00 00 	cmpl   $0x0,0x202a77(%rip)        # 6046c0 <is_checker>
  401c49:	74 16                	je     401c61 <sigalrmhandler+0x23>
  401c4b:	bf 51 2f 40 00       	mov    $0x402f51,%edi
  401c50:	e8 6b ef ff ff       	callq  400bc0 <puts@plt>
  401c55:	b8 00 00 00 00       	mov    $0x0,%eax
  401c5a:	e8 e1 fc ff ff       	callq  401940 <check_fail>
  401c5f:	eb 23                	jmp    401c84 <sigalrmhandler+0x46>
  401c61:	be 05 00 00 00       	mov    $0x5,%esi
  401c66:	bf 90 30 40 00       	mov    $0x403090,%edi
  401c6b:	b8 00 00 00 00       	mov    $0x0,%eax
  401c70:	e8 0b ef ff ff       	callq  400b80 <printf@plt>
  401c75:	be 00 00 00 00       	mov    $0x0,%esi
  401c7a:	bf 00 00 00 00       	mov    $0x0,%edi
  401c7f:	e8 22 fe ff ff       	callq  401aa6 <notify_server>
  401c84:	bf 01 00 00 00       	mov    $0x1,%edi
  401c89:	e8 52 ef ff ff       	callq  400be0 <exit@plt>

0000000000401c8e <illegalhandler>:
  401c8e:	48 83 ec 08          	sub    $0x8,%rsp
  401c92:	83 3d 27 2a 20 00 00 	cmpl   $0x0,0x202a27(%rip)        # 6046c0 <is_checker>
  401c99:	74 16                	je     401cb1 <illegalhandler+0x23>
  401c9b:	bf 59 2f 40 00       	mov    $0x402f59,%edi
  401ca0:	e8 1b ef ff ff       	callq  400bc0 <puts@plt>
  401ca5:	b8 00 00 00 00       	mov    $0x0,%eax
  401caa:	e8 91 fc ff ff       	callq  401940 <check_fail>
  401caf:	eb 23                	jmp    401cd4 <illegalhandler+0x46>
  401cb1:	bf c8 30 40 00       	mov    $0x4030c8,%edi
  401cb6:	e8 05 ef ff ff       	callq  400bc0 <puts@plt>
  401cbb:	bf 6d 2f 40 00       	mov    $0x402f6d,%edi
  401cc0:	e8 fb ee ff ff       	callq  400bc0 <puts@plt>
  401cc5:	be 00 00 00 00       	mov    $0x0,%esi
  401cca:	bf 00 00 00 00       	mov    $0x0,%edi
  401ccf:	e8 d2 fd ff ff       	callq  401aa6 <notify_server>
  401cd4:	bf 01 00 00 00       	mov    $0x1,%edi
  401cd9:	e8 02 ef ff ff       	callq  400be0 <exit@plt>

0000000000401cde <seghandler>:
  401cde:	48 83 ec 08          	sub    $0x8,%rsp
  401ce2:	83 3d d7 29 20 00 00 	cmpl   $0x0,0x2029d7(%rip)        # 6046c0 <is_checker>
  401ce9:	74 16                	je     401d01 <seghandler+0x23>
  401ceb:	bf 83 2f 40 00       	mov    $0x402f83,%edi
  401cf0:	e8 cb ee ff ff       	callq  400bc0 <puts@plt>
  401cf5:	b8 00 00 00 00       	mov    $0x0,%eax
  401cfa:	e8 41 fc ff ff       	callq  401940 <check_fail>
  401cff:	eb 23                	jmp    401d24 <seghandler+0x46>
  401d01:	bf f8 30 40 00       	mov    $0x4030f8,%edi
  401d06:	e8 b5 ee ff ff       	callq  400bc0 <puts@plt>
  401d0b:	bf 6d 2f 40 00       	mov    $0x402f6d,%edi
  401d10:	e8 ab ee ff ff       	callq  400bc0 <puts@plt>
  401d15:	be 00 00 00 00       	mov    $0x0,%esi
  401d1a:	bf 00 00 00 00       	mov    $0x0,%edi
  401d1f:	e8 82 fd ff ff       	callq  401aa6 <notify_server>
  401d24:	bf 01 00 00 00       	mov    $0x1,%edi
  401d29:	e8 b2 ee ff ff       	callq  400be0 <exit@plt>

0000000000401d2e <bushandler>:
  401d2e:	48 83 ec 08          	sub    $0x8,%rsp
  401d32:	83 3d 87 29 20 00 00 	cmpl   $0x0,0x202987(%rip)        # 6046c0 <is_checker>
  401d39:	74 16                	je     401d51 <bushandler+0x23>
  401d3b:	bf 96 2f 40 00       	mov    $0x402f96,%edi
  401d40:	e8 7b ee ff ff       	callq  400bc0 <puts@plt>
  401d45:	b8 00 00 00 00       	mov    $0x0,%eax
  401d4a:	e8 f1 fb ff ff       	callq  401940 <check_fail>
  401d4f:	eb 23                	jmp    401d74 <bushandler+0x46>
  401d51:	bf 20 31 40 00       	mov    $0x403120,%edi
  401d56:	e8 65 ee ff ff       	callq  400bc0 <puts@plt>
  401d5b:	bf 6d 2f 40 00       	mov    $0x402f6d,%edi
  401d60:	e8 5b ee ff ff       	callq  400bc0 <puts@plt>
  401d65:	be 00 00 00 00       	mov    $0x0,%esi
  401d6a:	bf 00 00 00 00       	mov    $0x0,%edi
  401d6f:	e8 32 fd ff ff       	callq  401aa6 <notify_server>
  401d74:	bf 01 00 00 00       	mov    $0x1,%edi
  401d79:	e8 62 ee ff ff       	callq  400be0 <exit@plt>

0000000000401d7e <fail>:
  401d7e:	48 83 ec 08          	sub    $0x8,%rsp
  401d82:	83 3d 37 29 20 00 00 	cmpl   $0x0,0x202937(%rip)        # 6046c0 <is_checker>
  401d89:	74 0c                	je     401d97 <fail+0x19>
  401d8b:	b8 00 00 00 00       	mov    $0x0,%eax
  401d90:	e8 ab fb ff ff       	callq  401940 <check_fail>
  401d95:	eb 0c                	jmp    401da3 <fail+0x25>
  401d97:	89 fe                	mov    %edi,%esi
  401d99:	bf 00 00 00 00       	mov    $0x0,%edi
  401d9e:	e8 03 fd ff ff       	callq  401aa6 <notify_server>
  401da3:	48 83 c4 08          	add    $0x8,%rsp
  401da7:	c3                   	retq   

0000000000401da8 <validate>:
  401da8:	48 89 5c 24 f0       	mov    %rbx,-0x10(%rsp)
  401dad:	48 89 6c 24 f8       	mov    %rbp,-0x8(%rsp)
  401db2:	48 83 ec 18          	sub    $0x18,%rsp
  401db6:	89 fb                	mov    %edi,%ebx
  401db8:	83 3d 01 29 20 00 00 	cmpl   $0x0,0x202901(%rip)        # 6046c0 <is_checker>
  401dbf:	74 65                	je     401e26 <validate+0x7e>
  401dc1:	8b 15 05 29 20 00    	mov    0x202905(%rip),%edx        # 6046cc <vlevel>
  401dc7:	39 fa                	cmp    %edi,%edx
  401dc9:	74 19                	je     401de4 <validate+0x3c>
  401dcb:	bf a0 2f 40 00       	mov    $0x402fa0,%edi
  401dd0:	e8 eb ed ff ff       	callq  400bc0 <puts@plt>
  401dd5:	b8 00 00 00 00       	mov    $0x0,%eax
  401dda:	e8 61 fb ff ff       	callq  401940 <check_fail>
  401ddf:	e9 88 00 00 00       	jmpq   401e6c <validate+0xc4>
  401de4:	8b 35 e6 28 20 00    	mov    0x2028e6(%rip),%esi        # 6046d0 <check_level>
  401dea:	39 f2                	cmp    %esi,%edx
  401dec:	74 1b                	je     401e09 <validate+0x61>
  401dee:	bf 40 31 40 00       	mov    $0x403140,%edi
  401df3:	b8 00 00 00 00       	mov    $0x0,%eax
  401df8:	e8 83 ed ff ff       	callq  400b80 <printf@plt>
  401dfd:	b8 00 00 00 00       	mov    $0x0,%eax
  401e02:	e8 39 fb ff ff       	callq  401940 <check_fail>
  401e07:	eb 63                	jmp    401e6c <validate+0xc4>
  401e09:	0f be 35 f4 34 20 00 	movsbl 0x2034f4(%rip),%esi        # 605304 <target_prefix>
  401e10:	b9 00 47 60 00       	mov    $0x604700,%ecx
  401e15:	bf be 2f 40 00       	mov    $0x402fbe,%edi
  401e1a:	b8 00 00 00 00       	mov    $0x0,%eax
  401e1f:	e8 5c ed ff ff       	callq  400b80 <printf@plt>
  401e24:	eb 46                	jmp    401e6c <validate+0xc4>
  401e26:	8b 2d a0 28 20 00    	mov    0x2028a0(%rip),%ebp        # 6046cc <vlevel>
  401e2c:	39 fd                	cmp    %edi,%ebp
  401e2e:	74 18                	je     401e48 <validate+0xa0>
  401e30:	bf a0 2f 40 00       	mov    $0x402fa0,%edi
  401e35:	e8 86 ed ff ff       	callq  400bc0 <puts@plt>
  401e3a:	89 de                	mov    %ebx,%esi
  401e3c:	bf 00 00 00 00       	mov    $0x0,%edi
  401e41:	e8 60 fc ff ff       	callq  401aa6 <notify_server>
  401e46:	eb 24                	jmp    401e6c <validate+0xc4>
  401e48:	0f be 15 b5 34 20 00 	movsbl 0x2034b5(%rip),%edx        # 605304 <target_prefix>
  401e4f:	89 ee                	mov    %ebp,%esi
  401e51:	bf 68 31 40 00       	mov    $0x403168,%edi
  401e56:	b8 00 00 00 00       	mov    $0x0,%eax
  401e5b:	e8 20 ed ff ff       	callq  400b80 <printf@plt>
  401e60:	89 ee                	mov    %ebp,%esi
  401e62:	bf 01 00 00 00       	mov    $0x1,%edi
  401e67:	e8 3a fc ff ff       	callq  401aa6 <notify_server>
  401e6c:	48 8b 5c 24 08       	mov    0x8(%rsp),%rbx
  401e71:	48 8b 6c 24 10       	mov    0x10(%rsp),%rbp
  401e76:	48 83 c4 18          	add    $0x18,%rsp
  401e7a:	c3                   	retq   

0000000000401e7b <Gets>:
  401e7b:	41 55                	push   %r13
  401e7d:	41 54                	push   %r12
  401e7f:	55                   	push   %rbp
  401e80:	53                   	push   %rbx
  401e81:	48 83 ec 08          	sub    $0x8,%rsp
  401e85:	49 89 fd             	mov    %rdi,%r13
  401e88:	c7 05 5e 28 20 00 00 	movl   $0x0,0x20285e(%rip)        # 6046f0 <gets_cnt>
  401e8f:	00 00 00 
  401e92:	48 89 fb             	mov    %rdi,%rbx
  401e95:	41 bc 00 47 60 00    	mov    $0x604700,%r12d
  401e9b:	bd a0 31 40 00       	mov    $0x4031a0,%ebp
  401ea0:	eb 55                	jmp    401ef7 <Gets+0x7c>
  401ea2:	88 03                	mov    %al,(%rbx)
  401ea4:	8b 15 46 28 20 00    	mov    0x202846(%rip),%edx        # 6046f0 <gets_cnt>
  401eaa:	81 fa ff 03 00 00    	cmp    $0x3ff,%edx
  401eb0:	7f 41                	jg     401ef3 <Gets+0x78>
  401eb2:	41 89 c0             	mov    %eax,%r8d
  401eb5:	8d 0c 52             	lea    (%rdx,%rdx,2),%ecx
  401eb8:	48 63 f1             	movslq %ecx,%rsi
  401ebb:	c0 e8 04             	shr    $0x4,%al
  401ebe:	0f b6 f8             	movzbl %al,%edi
  401ec1:	0f b6 7c 3d 00       	movzbl 0x0(%rbp,%rdi,1),%edi
  401ec6:	41 88 3c 34          	mov    %dil,(%r12,%rsi,1)
  401eca:	8d 71 01             	lea    0x1(%rcx),%esi
  401ecd:	48 63 f6             	movslq %esi,%rsi
  401ed0:	4c 89 c0             	mov    %r8,%rax
  401ed3:	83 e0 0f             	and    $0xf,%eax
  401ed6:	0f b6 44 05 00       	movzbl 0x0(%rbp,%rax,1),%eax
  401edb:	41 88 04 34          	mov    %al,(%r12,%rsi,1)
  401edf:	83 c1 02             	add    $0x2,%ecx
  401ee2:	48 63 c9             	movslq %ecx,%rcx
  401ee5:	41 c6 04 0c 20       	movb   $0x20,(%r12,%rcx,1)
  401eea:	83 c2 01             	add    $0x1,%edx
  401eed:	89 15 fd 27 20 00    	mov    %edx,0x2027fd(%rip)        # 6046f0 <gets_cnt>
  401ef3:	48 83 c3 01          	add    $0x1,%rbx
  401ef7:	48 8b 3d da 27 20 00 	mov    0x2027da(%rip),%rdi        # 6046d8 <infile>
  401efe:	e8 5d ed ff ff       	callq  400c60 <_IO_getc@plt>
  401f03:	83 f8 ff             	cmp    $0xffffffffffffffff,%eax
  401f06:	74 05                	je     401f0d <Gets+0x92>
  401f08:	83 f8 0a             	cmp    $0xa,%eax
  401f0b:	75 95                	jne    401ea2 <Gets+0x27>
  401f0d:	c6 03 00             	movb   $0x0,(%rbx)
  401f10:	8b 05 da 27 20 00    	mov    0x2027da(%rip),%eax        # 6046f0 <gets_cnt>
  401f16:	8d 04 40             	lea    (%rax,%rax,2),%eax
  401f19:	48 98                	cltq   
  401f1b:	c6 80 00 47 60 00 00 	movb   $0x0,0x604700(%rax)
  401f22:	4c 89 e8             	mov    %r13,%rax
  401f25:	48 83 c4 08          	add    $0x8,%rsp
  401f29:	5b                   	pop    %rbx
  401f2a:	5d                   	pop    %rbp
  401f2b:	41 5c                	pop    %r12
  401f2d:	41 5d                	pop    %r13
  401f2f:	c3                   	retq   

0000000000401f30 <init_driver>:
  401f30:	41 54                	push   %r12
  401f32:	55                   	push   %rbp
  401f33:	53                   	push   %rbx
  401f34:	48 83 ec 10          	sub    $0x10,%rsp
  401f38:	49 89 fc             	mov    %rdi,%r12
  401f3b:	be 01 00 00 00       	mov    $0x1,%esi
  401f40:	bf 0d 00 00 00       	mov    $0xd,%edi
  401f45:	e8 86 ed ff ff       	callq  400cd0 <signal@plt>
  401f4a:	be 01 00 00 00       	mov    $0x1,%esi
  401f4f:	bf 1d 00 00 00       	mov    $0x1d,%edi
  401f54:	e8 77 ed ff ff       	callq  400cd0 <signal@plt>
  401f59:	be 01 00 00 00       	mov    $0x1,%esi
  401f5e:	bf 1d 00 00 00       	mov    $0x1d,%edi
  401f63:	e8 68 ed ff ff       	callq  400cd0 <signal@plt>
  401f68:	ba 00 00 00 00       	mov    $0x0,%edx
  401f6d:	be 01 00 00 00       	mov    $0x1,%esi
  401f72:	bf 02 00 00 00       	mov    $0x2,%edi
  401f77:	e8 64 ed ff ff       	callq  400ce0 <socket@plt>
  401f7c:	89 c5                	mov    %eax,%ebp
  401f7e:	85 c0                	test   %eax,%eax
  401f80:	79 62                	jns    401fe4 <init_driver+0xb4>
  401f82:	41 c7 04 24 45 72 72 	movl   $0x6f727245,(%r12)
  401f89:	6f 
  401f8a:	41 c7 44 24 04 72 3a 	movl   $0x43203a72,0x4(%r12)
  401f91:	20 43 
  401f93:	41 c7 44 24 08 6c 69 	movl   $0x6e65696c,0x8(%r12)
  401f9a:	65 6e 
  401f9c:	41 c7 44 24 0c 74 20 	movl   $0x6e752074,0xc(%r12)
  401fa3:	75 6e 
  401fa5:	41 c7 44 24 10 61 62 	movl   $0x656c6261,0x10(%r12)
  401fac:	6c 65 
  401fae:	41 c7 44 24 14 20 74 	movl   $0x206f7420,0x14(%r12)
  401fb5:	6f 20 
  401fb7:	41 c7 44 24 18 63 72 	movl   $0x61657263,0x18(%r12)
  401fbe:	65 61 
  401fc0:	41 c7 44 24 1c 74 65 	movl   $0x73206574,0x1c(%r12)
  401fc7:	20 73 
  401fc9:	41 c7 44 24 20 6f 63 	movl   $0x656b636f,0x20(%r12)
  401fd0:	6b 65 
  401fd2:	66 41 c7 44 24 24 74 	movw   $0x74,0x24(%r12)
  401fd9:	00 
  401fda:	b8 ff ff ff ff       	mov    $0xffffffff,%eax
  401fdf:	e9 56 01 00 00       	jmpq   40213a <init_driver+0x20a>
  401fe4:	bf 8b 2d 40 00       	mov    $0x402d8b,%edi
  401fe9:	e8 c2 eb ff ff       	callq  400bb0 <gethostbyname@plt>
  401fee:	48 85 c0             	test   %rax,%rax
  401ff1:	0f 85 81 00 00 00    	jne    402078 <init_driver+0x148>
  401ff7:	41 c7 04 24 45 72 72 	movl   $0x6f727245,(%r12)
  401ffe:	6f 
  401fff:	41 c7 44 24 04 72 3a 	movl   $0x44203a72,0x4(%r12)
  402006:	20 44 
  402008:	41 c7 44 24 08 4e 53 	movl   $0x6920534e,0x8(%r12)
  40200f:	20 69 
  402011:	41 c7 44 24 0c 73 20 	movl   $0x6e752073,0xc(%r12)
  402018:	75 6e 
  40201a:	41 c7 44 24 10 61 62 	movl   $0x656c6261,0x10(%r12)
  402021:	6c 65 
  402023:	41 c7 44 24 14 20 74 	movl   $0x206f7420,0x14(%r12)
  40202a:	6f 20 
  40202c:	41 c7 44 24 18 72 65 	movl   $0x6f736572,0x18(%r12)
  402033:	73 6f 
  402035:	41 c7 44 24 1c 6c 76 	movl   $0x2065766c,0x1c(%r12)
  40203c:	65 20 
  40203e:	41 c7 44 24 20 73 65 	movl   $0x76726573,0x20(%r12)
  402045:	72 76 
  402047:	41 c7 44 24 24 65 72 	movl   $0x61207265,0x24(%r12)
  40204e:	20 61 
  402050:	41 c7 44 24 28 64 64 	movl   $0x65726464,0x28(%r12)
  402057:	72 65 
  402059:	66 41 c7 44 24 2c 73 	movw   $0x7373,0x2c(%r12)
  402060:	73 
  402061:	41 c6 44 24 2e 00    	movb   $0x0,0x2e(%r12)
  402067:	89 ef                	mov    %ebp,%edi
  402069:	e8 32 eb ff ff       	callq  400ba0 <close@plt>
  40206e:	b8 ff ff ff ff       	mov    $0xffffffff,%eax
  402073:	e9 c2 00 00 00       	jmpq   40213a <init_driver+0x20a>
  402078:	48 c7 04 24 00 00 00 	movq   $0x0,(%rsp)
  40207f:	00 
  402080:	48 c7 44 24 08 00 00 	movq   $0x0,0x8(%rsp)
  402087:	00 00 
  402089:	66 c7 04 24 02 00    	movw   $0x2,(%rsp)
  40208f:	48 63 50 14          	movslq 0x14(%rax),%rdx
  402093:	48 8d 74 24 04       	lea    0x4(%rsp),%rsi
  402098:	48 8b 40 18          	mov    0x18(%rax),%rax
  40209c:	48 8b 38             	mov    (%rax),%rdi
  40209f:	e8 cc eb ff ff       	callq  400c70 <bcopy@plt>
  4020a4:	66 c7 44 24 02 36 b1 	movw   $0xb136,0x2(%rsp)
  4020ab:	ba 10 00 00 00       	mov    $0x10,%edx
  4020b0:	48 89 e6             	mov    %rsp,%rsi
  4020b3:	89 ef                	mov    %ebp,%edi
  4020b5:	e8 e6 eb ff ff       	callq  400ca0 <connect@plt>
  4020ba:	85 c0                	test   %eax,%eax
  4020bc:	79 63                	jns    402121 <init_driver+0x1f1>
  4020be:	41 c7 04 24 45 72 72 	movl   $0x6f727245,(%r12)
  4020c5:	6f 
  4020c6:	41 c7 44 24 04 72 3a 	movl   $0x55203a72,0x4(%r12)
  4020cd:	20 55 
  4020cf:	41 c7 44 24 08 6e 61 	movl   $0x6c62616e,0x8(%r12)
  4020d6:	62 6c 
  4020d8:	41 c7 44 24 0c 65 20 	movl   $0x6f742065,0xc(%r12)
  4020df:	74 6f 
  4020e1:	41 c7 44 24 10 20 63 	movl   $0x6e6f6320,0x10(%r12)
  4020e8:	6f 6e 
  4020ea:	41 c7 44 24 14 6e 65 	movl   $0x7463656e,0x14(%r12)
  4020f1:	63 74 
  4020f3:	41 c7 44 24 18 20 74 	movl   $0x206f7420,0x18(%r12)
  4020fa:	6f 20 
  4020fc:	41 c7 44 24 1c 73 65 	movl   $0x76726573,0x1c(%r12)
  402103:	72 76 
  402105:	66 41 c7 44 24 20 65 	movw   $0x7265,0x20(%r12)
  40210c:	72 
  40210d:	41 c6 44 24 22 00    	movb   $0x0,0x22(%r12)
  402113:	89 ef                	mov    %ebp,%edi
  402115:	e8 86 ea ff ff       	callq  400ba0 <close@plt>
  40211a:	b8 ff ff ff ff       	mov    $0xffffffff,%eax
  40211f:	eb 19                	jmp    40213a <init_driver+0x20a>
  402121:	89 ef                	mov    %ebp,%edi
  402123:	e8 78 ea ff ff       	callq  400ba0 <close@plt>
  402128:	66 41 c7 04 24 4f 4b 	movw   $0x4b4f,(%r12)
  40212f:	41 c6 44 24 02 00    	movb   $0x0,0x2(%r12)
  402135:	b8 00 00 00 00       	mov    $0x0,%eax
  40213a:	48 83 c4 10          	add    $0x10,%rsp
  40213e:	5b                   	pop    %rbx
  40213f:	5d                   	pop    %rbp
  402140:	41 5c                	pop    %r12
  402142:	c3                   	retq   

0000000000402143 <init_timeout>:
  402143:	53                   	push   %rbx
  402144:	89 fb                	mov    %edi,%ebx
  402146:	85 ff                	test   %edi,%edi
  402148:	74 1e                	je     402168 <init_timeout+0x25>
  40214a:	be 0a 29 40 00       	mov    $0x40290a,%esi
  40214f:	bf 0e 00 00 00       	mov    $0xe,%edi
  402154:	e8 77 eb ff ff       	callq  400cd0 <signal@plt>
  402159:	85 db                	test   %ebx,%ebx
  40215b:	bf 00 00 00 00       	mov    $0x0,%edi
  402160:	0f 49 fb             	cmovns %ebx,%edi
  402163:	e8 88 eb ff ff       	callq  400cf0 <alarm@plt>
  402168:	5b                   	pop    %rbx
  402169:	c3                   	retq   

000000000040216a <rio_readlineb>:
  40216a:	41 57                	push   %r15
  40216c:	41 56                	push   %r14
  40216e:	41 55                	push   %r13
  402170:	41 54                	push   %r12
  402172:	55                   	push   %rbp
  402173:	53                   	push   %rbx
  402174:	48 83 ec 28          	sub    $0x28,%rsp
  402178:	48 89 fb             	mov    %rdi,%rbx
  40217b:	48 89 14 24          	mov    %rdx,(%rsp)
  40217f:	49 89 f7             	mov    %rsi,%r15
  402182:	48 83 fa 01          	cmp    $0x1,%rdx
  402186:	0f 86 be 00 00 00    	jbe    40224a <rio_readlineb+0xe0>
  40218c:	4c 8d 6f 10          	lea    0x10(%rdi),%r13
  402190:	4d 89 ec             	mov    %r13,%r12
  402193:	41 be 01 00 00 00    	mov    $0x1,%r14d
  402199:	eb 38                	jmp    4021d3 <rio_readlineb+0x69>
  40219b:	ba 00 20 00 00       	mov    $0x2000,%edx
  4021a0:	4c 89 ee             	mov    %r13,%rsi
  4021a3:	8b 3b                	mov    (%rbx),%edi
  4021a5:	e8 66 ea ff ff       	callq  400c10 <read@plt>
  4021aa:	89 43 04             	mov    %eax,0x4(%rbx)
  4021ad:	85 c0                	test   %eax,%eax
  4021af:	79 16                	jns    4021c7 <rio_readlineb+0x5d>
  4021b1:	e8 4a eb ff ff       	callq  400d00 <__errno_location@plt>
  4021b6:	83 38 04             	cmpl   $0x4,(%rax)
  4021b9:	74 18                	je     4021d3 <rio_readlineb+0x69>
  4021bb:	48 c7 c2 ff ff ff ff 	mov    $0xffffffffffffffff,%rdx
  4021c2:	e9 a4 00 00 00       	jmpq   40226b <rio_readlineb+0x101>
  4021c7:	85 c0                	test   %eax,%eax
  4021c9:	0f 84 97 00 00 00    	je     402266 <rio_readlineb+0xfc>
  4021cf:	4c 89 63 08          	mov    %r12,0x8(%rbx)
  4021d3:	8b 6b 04             	mov    0x4(%rbx),%ebp
  4021d6:	85 ed                	test   %ebp,%ebp
  4021d8:	7e c1                	jle    40219b <rio_readlineb+0x31>
  4021da:	85 ed                	test   %ebp,%ebp
  4021dc:	0f 85 8e 00 00 00    	jne    402270 <rio_readlineb+0x106>
  4021e2:	48 63 c5             	movslq %ebp,%rax
  4021e5:	48 89 44 24 08       	mov    %rax,0x8(%rsp)
  4021ea:	48 8b 73 08          	mov    0x8(%rbx),%rsi
  4021ee:	48 89 c2             	mov    %rax,%rdx
  4021f1:	48 8d 7c 24 1f       	lea    0x1f(%rsp),%rdi
  4021f6:	e8 c5 ea ff ff       	callq  400cc0 <memcpy@plt>
  4021fb:	48 8b 44 24 08       	mov    0x8(%rsp),%rax
  402200:	48 01 43 08          	add    %rax,0x8(%rbx)
  402204:	29 6b 04             	sub    %ebp,0x4(%rbx)
  402207:	89 c2                	mov    %eax,%edx
  402209:	83 f8 01             	cmp    $0x1,%eax
  40220c:	75 15                	jne    402223 <rio_readlineb+0xb9>
  40220e:	0f b6 44 24 1f       	movzbl 0x1f(%rsp),%eax
  402213:	41 88 07             	mov    %al,(%r15)
  402216:	49 83 c7 01          	add    $0x1,%r15
  40221a:	80 7c 24 1f 0a       	cmpb   $0xa,0x1f(%rsp)
  40221f:	75 1d                	jne    40223e <rio_readlineb+0xd4>
  402221:	eb 2d                	jmp    402250 <rio_readlineb+0xe6>
  402223:	4c 89 f1             	mov    %r14,%rcx
  402226:	48 c7 c0 ff ff ff ff 	mov    $0xffffffffffffffff,%rax
  40222d:	85 d2                	test   %edx,%edx
  40222f:	75 26                	jne    402257 <rio_readlineb+0xed>
  402231:	b8 00 00 00 00       	mov    $0x0,%eax
  402236:	48 83 f9 01          	cmp    $0x1,%rcx
  40223a:	75 14                	jne    402250 <rio_readlineb+0xe6>
  40223c:	eb 19                	jmp    402257 <rio_readlineb+0xed>
  40223e:	49 83 c6 01          	add    $0x1,%r14
  402242:	4c 39 34 24          	cmp    %r14,(%rsp)
  402246:	77 8b                	ja     4021d3 <rio_readlineb+0x69>
  402248:	eb 06                	jmp    402250 <rio_readlineb+0xe6>
  40224a:	41 be 01 00 00 00    	mov    $0x1,%r14d
  402250:	41 c6 07 00          	movb   $0x0,(%r15)
  402254:	4c 89 f0             	mov    %r14,%rax
  402257:	48 83 c4 28          	add    $0x28,%rsp
  40225b:	5b                   	pop    %rbx
  40225c:	5d                   	pop    %rbp
  40225d:	41 5c                	pop    %r12
  40225f:	41 5d                	pop    %r13
  402261:	41 5e                	pop    %r14
  402263:	41 5f                	pop    %r15
  402265:	c3                   	retq   
  402266:	ba 00 00 00 00       	mov    $0x0,%edx
  40226b:	4c 89 f1             	mov    %r14,%rcx
  40226e:	eb b6                	jmp    402226 <rio_readlineb+0xbc>
  402270:	48 8b 43 08          	mov    0x8(%rbx),%rax
  402274:	0f b6 00             	movzbl (%rax),%eax
  402277:	88 44 24 1f          	mov    %al,0x1f(%rsp)
  40227b:	48 83 43 08 01       	addq   $0x1,0x8(%rbx)
  402280:	83 6b 04 01          	subl   $0x1,0x4(%rbx)
  402284:	eb 88                	jmp    40220e <rio_readlineb+0xa4>

0000000000402286 <submitr>:
  402286:	41 57                	push   %r15
  402288:	41 56                	push   %r14
  40228a:	41 55                	push   %r13
  40228c:	41 54                	push   %r12
  40228e:	55                   	push   %rbp
  40228f:	53                   	push   %rbx
  402290:	48 81 ec 68 a0 00 00 	sub    $0xa068,%rsp
  402297:	49 89 ff             	mov    %rdi,%r15
  40229a:	41 89 f4             	mov    %esi,%r12d
  40229d:	48 89 54 24 08       	mov    %rdx,0x8(%rsp)
  4022a2:	48 89 4c 24 10       	mov    %rcx,0x10(%rsp)
  4022a7:	4c 89 44 24 18       	mov    %r8,0x18(%rsp)
  4022ac:	4c 89 cd             	mov    %r9,%rbp
  4022af:	4c 8b b4 24 a0 a0 00 	mov    0xa0a0(%rsp),%r14
  4022b6:	00 
  4022b7:	c7 84 24 3c 20 00 00 	movl   $0x0,0x203c(%rsp)
  4022be:	00 00 00 00 
  4022c2:	ba 00 00 00 00       	mov    $0x0,%edx
  4022c7:	be 01 00 00 00       	mov    $0x1,%esi
  4022cc:	bf 02 00 00 00       	mov    $0x2,%edi
  4022d1:	e8 0a ea ff ff       	callq  400ce0 <socket@plt>
  4022d6:	41 89 c5             	mov    %eax,%r13d
  4022d9:	85 c0                	test   %eax,%eax
  4022db:	79 19                	jns    4022f6 <submitr+0x70>
  4022dd:	be f0 31 40 00       	mov    $0x4031f0,%esi
  4022e2:	b9 26 00 00 00       	mov    $0x26,%ecx
  4022e7:	4c 89 f7             	mov    %r14,%rdi
  4022ea:	f3 a4                	rep movsb %ds:(%rsi),%es:(%rdi)
  4022ec:	b8 ff ff ff ff       	mov    $0xffffffff,%eax
  4022f1:	e9 2e 05 00 00       	jmpq   402824 <submitr+0x59e>
  4022f6:	4c 89 ff             	mov    %r15,%rdi
  4022f9:	e8 b2 e8 ff ff       	callq  400bb0 <gethostbyname@plt>
  4022fe:	48 85 c0             	test   %rax,%rax
  402301:	75 21                	jne    402324 <submitr+0x9e>
  402303:	be 18 32 40 00       	mov    $0x403218,%esi
  402308:	b9 2f 00 00 00       	mov    $0x2f,%ecx
  40230d:	4c 89 f7             	mov    %r14,%rdi
  402310:	f3 a4                	rep movsb %ds:(%rsi),%es:(%rdi)
  402312:	44 89 ef             	mov    %r13d,%edi
  402315:	e8 86 e8 ff ff       	callq  400ba0 <close@plt>
  40231a:	b8 ff ff ff ff       	mov    $0xffffffff,%eax
  40231f:	e9 00 05 00 00       	jmpq   402824 <submitr+0x59e>
  402324:	48 8d 9c 24 50 a0 00 	lea    0xa050(%rsp),%rbx
  40232b:	00 
  40232c:	48 c7 03 00 00 00 00 	movq   $0x0,(%rbx)
  402333:	48 c7 43 08 00 00 00 	movq   $0x0,0x8(%rbx)
  40233a:	00 
  40233b:	66 c7 84 24 50 a0 00 	movw   $0x2,0xa050(%rsp)
  402342:	00 02 00 
  402345:	48 63 50 14          	movslq 0x14(%rax),%rdx
  402349:	48 8d 73 04          	lea    0x4(%rbx),%rsi
  40234d:	48 8b 40 18          	mov    0x18(%rax),%rax
  402351:	48 8b 38             	mov    (%rax),%rdi
  402354:	e8 17 e9 ff ff       	callq  400c70 <bcopy@plt>
  402359:	66 41 c1 cc 08       	ror    $0x8,%r12w
  40235e:	66 44 89 a4 24 52 a0 	mov    %r12w,0xa052(%rsp)
  402365:	00 00 
  402367:	ba 10 00 00 00       	mov    $0x10,%edx
  40236c:	48 89 de             	mov    %rbx,%rsi
  40236f:	44 89 ef             	mov    %r13d,%edi
  402372:	e8 29 e9 ff ff       	callq  400ca0 <connect@plt>
  402377:	85 c0                	test   %eax,%eax
  402379:	79 21                	jns    40239c <submitr+0x116>
  40237b:	be 48 32 40 00       	mov    $0x403248,%esi
  402380:	b9 27 00 00 00       	mov    $0x27,%ecx
  402385:	4c 89 f7             	mov    %r14,%rdi
  402388:	f3 a4                	rep movsb %ds:(%rsi),%es:(%rdi)
  40238a:	44 89 ef             	mov    %r13d,%edi
  40238d:	e8 0e e8 ff ff       	callq  400ba0 <close@plt>
  402392:	b8 ff ff ff ff       	mov    $0xffffffff,%eax
  402397:	e9 88 04 00 00       	jmpq   402824 <submitr+0x59e>
  40239c:	48 c7 c2 ff ff ff ff 	mov    $0xffffffffffffffff,%rdx
  4023a3:	48 89 ef             	mov    %rbp,%rdi
  4023a6:	b8 00 00 00 00       	mov    $0x0,%eax
  4023ab:	48 89 d1             	mov    %rdx,%rcx
  4023ae:	f2 ae                	repnz scas %es:(%rdi),%al
  4023b0:	48 89 cb             	mov    %rcx,%rbx
  4023b3:	48 f7 d3             	not    %rbx
  4023b6:	48 8b 7c 24 08       	mov    0x8(%rsp),%rdi
  4023bb:	48 89 d1             	mov    %rdx,%rcx
  4023be:	f2 ae                	repnz scas %es:(%rdi),%al
  4023c0:	48 89 ce             	mov    %rcx,%rsi
  4023c3:	48 8b 7c 24 10       	mov    0x10(%rsp),%rdi
  4023c8:	48 89 d1             	mov    %rdx,%rcx
  4023cb:	f2 ae                	repnz scas %es:(%rdi),%al
  4023cd:	49 89 c8             	mov    %rcx,%r8
  4023d0:	49 f7 d0             	not    %r8
  4023d3:	48 8b 7c 24 18       	mov    0x18(%rsp),%rdi
  4023d8:	48 89 d1             	mov    %rdx,%rcx
  4023db:	f2 ae                	repnz scas %es:(%rdi),%al
  4023dd:	49 29 f0             	sub    %rsi,%r8
  4023e0:	49 29 c8             	sub    %rcx,%r8
  4023e3:	48 8d 5c 5b fd       	lea    -0x3(%rbx,%rbx,2),%rbx
  4023e8:	49 8d 44 18 7b       	lea    0x7b(%r8,%rbx,1),%rax
  4023ed:	48 3d 00 20 00 00    	cmp    $0x2000,%rax
  4023f3:	0f 86 81 00 00 00    	jbe    40247a <submitr+0x1f4>
  4023f9:	41 c7 06 45 72 72 6f 	movl   $0x6f727245,(%r14)
  402400:	41 c7 46 04 72 3a 20 	movl   $0x52203a72,0x4(%r14)
  402407:	52 
  402408:	41 c7 46 08 65 73 75 	movl   $0x6c757365,0x8(%r14)
  40240f:	6c 
  402410:	41 c7 46 0c 74 20 73 	movl   $0x74732074,0xc(%r14)
  402417:	74 
  402418:	41 c7 46 10 72 69 6e 	movl   $0x676e6972,0x10(%r14)
  40241f:	67 
  402420:	41 c7 46 14 20 74 6f 	movl   $0x6f6f7420,0x14(%r14)
  402427:	6f 
  402428:	41 c7 46 18 20 6c 61 	movl   $0x72616c20,0x18(%r14)
  40242f:	72 
  402430:	41 c7 46 1c 67 65 2e 	movl   $0x202e6567,0x1c(%r14)
  402437:	20 
  402438:	41 c7 46 20 49 6e 63 	movl   $0x72636e49,0x20(%r14)
  40243f:	72 
  402440:	41 c7 46 24 65 61 73 	movl   $0x65736165,0x24(%r14)
  402447:	65 
  402448:	41 c7 46 28 20 53 55 	movl   $0x42555320,0x28(%r14)
  40244f:	42 
  402450:	41 c7 46 2c 4d 49 54 	movl   $0x5254494d,0x2c(%r14)
  402457:	52 
  402458:	41 c7 46 30 5f 4d 41 	movl   $0x58414d5f,0x30(%r14)
  40245f:	58 
  402460:	41 c7 46 34 42 55 46 	movl   $0x465542,0x34(%r14)
  402467:	00 
  402468:	44 89 ef             	mov    %r13d,%edi
  40246b:	e8 30 e7 ff ff       	callq  400ba0 <close@plt>
  402470:	b8 ff ff ff ff       	mov    $0xffffffff,%eax
  402475:	e9 aa 03 00 00       	jmpq   402824 <submitr+0x59e>
  40247a:	48 8d 94 24 40 40 00 	lea    0x4040(%rsp),%rdx
  402481:	00 
  402482:	b9 00 04 00 00       	mov    $0x400,%ecx
  402487:	b8 00 00 00 00       	mov    $0x0,%eax
  40248c:	48 89 d7             	mov    %rdx,%rdi
  40248f:	f3 48 ab             	rep stos %rax,%es:(%rdi)
  402492:	48 89 ef             	mov    %rbp,%rdi
  402495:	48 c7 c1 ff ff ff ff 	mov    $0xffffffffffffffff,%rcx
  40249c:	f2 ae                	repnz scas %es:(%rdi),%al
  40249e:	48 f7 d1             	not    %rcx
  4024a1:	83 e9 01             	sub    $0x1,%ecx
  4024a4:	0f 84 8c 03 00 00    	je     402836 <submitr+0x5b0>
  4024aa:	48 89 d3             	mov    %rdx,%rbx
  4024ad:	44 8d 61 ff          	lea    -0x1(%rcx),%r12d
  4024b1:	0f b6 45 00          	movzbl 0x0(%rbp),%eax
  4024b5:	3c 2a                	cmp    $0x2a,%al
  4024b7:	74 24                	je     4024dd <submitr+0x257>
  4024b9:	3c 2d                	cmp    $0x2d,%al
  4024bb:	74 20                	je     4024dd <submitr+0x257>
  4024bd:	3c 2e                	cmp    $0x2e,%al
  4024bf:	74 1c                	je     4024dd <submitr+0x257>
  4024c1:	3c 5f                	cmp    $0x5f,%al
  4024c3:	74 18                	je     4024dd <submitr+0x257>
  4024c5:	8d 50 d0             	lea    -0x30(%rax),%edx
  4024c8:	80 fa 09             	cmp    $0x9,%dl
  4024cb:	76 10                	jbe    4024dd <submitr+0x257>
  4024cd:	8d 50 bf             	lea    -0x41(%rax),%edx
  4024d0:	80 fa 19             	cmp    $0x19,%dl
  4024d3:	76 08                	jbe    4024dd <submitr+0x257>
  4024d5:	8d 50 9f             	lea    -0x61(%rax),%edx
  4024d8:	80 fa 19             	cmp    $0x19,%dl
  4024db:	77 08                	ja     4024e5 <submitr+0x25f>
  4024dd:	88 03                	mov    %al,(%rbx)
  4024df:	48 83 c3 01          	add    $0x1,%rbx
  4024e3:	eb 4b                	jmp    402530 <submitr+0x2aa>
  4024e5:	3c 20                	cmp    $0x20,%al
  4024e7:	75 09                	jne    4024f2 <submitr+0x26c>
  4024e9:	c6 03 2b             	movb   $0x2b,(%rbx)
  4024ec:	48 83 c3 01          	add    $0x1,%rbx
  4024f0:	eb 3e                	jmp    402530 <submitr+0x2aa>
  4024f2:	8d 50 e0             	lea    -0x20(%rax),%edx
  4024f5:	80 fa 5f             	cmp    $0x5f,%dl
  4024f8:	76 04                	jbe    4024fe <submitr+0x278>
  4024fa:	3c 09                	cmp    $0x9,%al
  4024fc:	75 48                	jne    402546 <submitr+0x2c0>
  4024fe:	0f b6 d0             	movzbl %al,%edx
  402501:	be b0 31 40 00       	mov    $0x4031b0,%esi
  402506:	48 8d 7c 24 20       	lea    0x20(%rsp),%rdi
  40250b:	b8 00 00 00 00       	mov    $0x0,%eax
  402510:	e8 6b e7 ff ff       	callq  400c80 <sprintf@plt>
  402515:	0f b6 44 24 20       	movzbl 0x20(%rsp),%eax
  40251a:	88 03                	mov    %al,(%rbx)
  40251c:	0f b6 44 24 21       	movzbl 0x21(%rsp),%eax
  402521:	88 43 01             	mov    %al,0x1(%rbx)
  402524:	0f b6 44 24 22       	movzbl 0x22(%rsp),%eax
  402529:	88 43 02             	mov    %al,0x2(%rbx)
  40252c:	48 83 c3 03          	add    $0x3,%rbx
  402530:	45 85 e4             	test   %r12d,%r12d
  402533:	0f 84 fd 02 00 00    	je     402836 <submitr+0x5b0>
  402539:	48 83 c5 01          	add    $0x1,%rbp
  40253d:	41 83 ec 01          	sub    $0x1,%r12d
  402541:	e9 6b ff ff ff       	jmpq   4024b1 <submitr+0x22b>
  402546:	be 70 32 40 00       	mov    $0x403270,%esi
  40254b:	b9 43 00 00 00       	mov    $0x43,%ecx
  402550:	4c 89 f7             	mov    %r14,%rdi
  402553:	f3 a4                	rep movsb %ds:(%rsi),%es:(%rdi)
  402555:	44 89 ef             	mov    %r13d,%edi
  402558:	e8 43 e6 ff ff       	callq  400ba0 <close@plt>
  40255d:	b8 ff ff ff ff       	mov    $0xffffffff,%eax
  402562:	e9 bd 02 00 00       	jmpq   402824 <submitr+0x59e>
  402567:	48 01 c5             	add    %rax,%rbp
  40256a:	48 89 da             	mov    %rbx,%rdx
  40256d:	48 89 ee             	mov    %rbp,%rsi
  402570:	44 89 ef             	mov    %r13d,%edi
  402573:	e8 d8 e7 ff ff       	callq  400d50 <write@plt>
  402578:	48 85 c0             	test   %rax,%rax
  40257b:	7f 0d                	jg     40258a <submitr+0x304>
  40257d:	e8 7e e7 ff ff       	callq  400d00 <__errno_location@plt>
  402582:	83 38 04             	cmpl   $0x4,(%rax)
  402585:	75 0d                	jne    402594 <submitr+0x30e>
  402587:	4c 89 f8             	mov    %r15,%rax
  40258a:	48 29 c3             	sub    %rax,%rbx
  40258d:	75 d8                	jne    402567 <submitr+0x2e1>
  40258f:	4d 85 e4             	test   %r12,%r12
  402592:	79 21                	jns    4025b5 <submitr+0x32f>
  402594:	be b8 32 40 00       	mov    $0x4032b8,%esi
  402599:	b9 33 00 00 00       	mov    $0x33,%ecx
  40259e:	4c 89 f7             	mov    %r14,%rdi
  4025a1:	f3 a4                	rep movsb %ds:(%rsi),%es:(%rdi)
  4025a3:	44 89 ef             	mov    %r13d,%edi
  4025a6:	e8 f5 e5 ff ff       	callq  400ba0 <close@plt>
  4025ab:	b8 ff ff ff ff       	mov    $0xffffffff,%eax
  4025b0:	e9 6f 02 00 00       	jmpq   402824 <submitr+0x59e>
  4025b5:	44 89 ac 24 40 80 00 	mov    %r13d,0x8040(%rsp)
  4025bc:	00 
  4025bd:	c7 84 24 44 80 00 00 	movl   $0x0,0x8044(%rsp)
  4025c4:	00 00 00 00 
  4025c8:	48 8d bc 24 40 80 00 	lea    0x8040(%rsp),%rdi
  4025cf:	00 
  4025d0:	48 8d 47 10          	lea    0x10(%rdi),%rax
  4025d4:	48 89 84 24 48 80 00 	mov    %rax,0x8048(%rsp)
  4025db:	00 
  4025dc:	48 8d b4 24 40 60 00 	lea    0x6040(%rsp),%rsi
  4025e3:	00 
  4025e4:	ba 00 20 00 00       	mov    $0x2000,%edx
  4025e9:	e8 7c fb ff ff       	callq  40216a <rio_readlineb>
  4025ee:	48 85 c0             	test   %rax,%rax
  4025f1:	7f 21                	jg     402614 <submitr+0x38e>
  4025f3:	be f0 32 40 00       	mov    $0x4032f0,%esi
  4025f8:	b9 3d 00 00 00       	mov    $0x3d,%ecx
  4025fd:	4c 89 f7             	mov    %r14,%rdi
  402600:	f3 a4                	rep movsb %ds:(%rsi),%es:(%rdi)
  402602:	44 89 ef             	mov    %r13d,%edi
  402605:	e8 96 e5 ff ff       	callq  400ba0 <close@plt>
  40260a:	b8 ff ff ff ff       	mov    $0xffffffff,%eax
  40260f:	e9 10 02 00 00       	jmpq   402824 <submitr+0x59e>
  402614:	4c 8d bc 24 40 60 00 	lea    0x6040(%rsp),%r15
  40261b:	00 
  40261c:	48 8d 8c 24 3c 20 00 	lea    0x203c(%rsp),%rcx
  402623:	00 
  402624:	48 8d 94 24 40 20 00 	lea    0x2040(%rsp),%rdx
  40262b:	00 
  40262c:	4c 8d 44 24 30       	lea    0x30(%rsp),%r8
  402631:	be b7 31 40 00       	mov    $0x4031b7,%esi
  402636:	4c 89 ff             	mov    %r15,%rdi
  402639:	b8 00 00 00 00       	mov    $0x0,%eax
  40263e:	e8 8d e5 ff ff       	callq  400bd0 <__isoc99_sscanf@plt>
  402643:	48 8d 9c 24 40 60 00 	lea    0x6040(%rsp),%rbx
  40264a:	00 
  40264b:	bd ce 31 40 00       	mov    $0x4031ce,%ebp
  402650:	4c 8d a4 24 40 80 00 	lea    0x8040(%rsp),%r12
  402657:	00 
  402658:	e9 a2 00 00 00       	jmpq   4026ff <submitr+0x479>
  40265d:	ba 00 20 00 00       	mov    $0x2000,%edx
  402662:	48 89 de             	mov    %rbx,%rsi
  402665:	4c 89 e7             	mov    %r12,%rdi
  402668:	e8 fd fa ff ff       	callq  40216a <rio_readlineb>
  40266d:	48 85 c0             	test   %rax,%rax
  402670:	0f 8f 89 00 00 00    	jg     4026ff <submitr+0x479>
  402676:	41 c7 06 45 72 72 6f 	movl   $0x6f727245,(%r14)
  40267d:	41 c7 46 04 72 3a 20 	movl   $0x43203a72,0x4(%r14)
  402684:	43 
  402685:	41 c7 46 08 6c 69 65 	movl   $0x6e65696c,0x8(%r14)
  40268c:	6e 
  40268d:	41 c7 46 0c 74 20 75 	movl   $0x6e752074,0xc(%r14)
  402694:	6e 
  402695:	41 c7 46 10 61 62 6c 	movl   $0x656c6261,0x10(%r14)
  40269c:	65 
  40269d:	41 c7 46 14 20 74 6f 	movl   $0x206f7420,0x14(%r14)
  4026a4:	20 
  4026a5:	41 c7 46 18 72 65 61 	movl   $0x64616572,0x18(%r14)
  4026ac:	64 
  4026ad:	41 c7 46 1c 20 68 65 	movl   $0x61656820,0x1c(%r14)
  4026b4:	61 
  4026b5:	41 c7 46 20 64 65 72 	movl   $0x73726564,0x20(%r14)
  4026bc:	73 
  4026bd:	41 c7 46 24 20 66 72 	movl   $0x6f726620,0x24(%r14)
  4026c4:	6f 
  4026c5:	41 c7 46 28 6d 20 74 	movl   $0x6874206d,0x28(%r14)
  4026cc:	68 
  4026cd:	41 c7 46 2c 65 20 72 	movl   $0x65722065,0x2c(%r14)
  4026d4:	65 
  4026d5:	41 c7 46 30 73 75 6c 	movl   $0x746c7573,0x30(%r14)
  4026dc:	74 
  4026dd:	41 c7 46 34 20 73 65 	movl   $0x72657320,0x34(%r14)
  4026e4:	72 
  4026e5:	41 c7 46 38 76 65 72 	movl   $0x726576,0x38(%r14)
  4026ec:	00 
  4026ed:	44 89 ef             	mov    %r13d,%edi
  4026f0:	e8 ab e4 ff ff       	callq  400ba0 <close@plt>
  4026f5:	b8 ff ff ff ff       	mov    $0xffffffff,%eax
  4026fa:	e9 25 01 00 00       	jmpq   402824 <submitr+0x59e>
  4026ff:	0f b6 03             	movzbl (%rbx),%eax
  402702:	3a 45 00             	cmp    0x0(%rbp),%al
  402705:	0f 85 52 ff ff ff    	jne    40265d <submitr+0x3d7>
  40270b:	0f b6 43 01          	movzbl 0x1(%rbx),%eax
  40270f:	3a 45 01             	cmp    0x1(%rbp),%al
  402712:	0f 85 45 ff ff ff    	jne    40265d <submitr+0x3d7>
  402718:	0f b6 43 02          	movzbl 0x2(%rbx),%eax
  40271c:	3a 45 02             	cmp    0x2(%rbp),%al
  40271f:	0f 85 38 ff ff ff    	jne    40265d <submitr+0x3d7>
  402725:	48 8d b4 24 40 60 00 	lea    0x6040(%rsp),%rsi
  40272c:	00 
  40272d:	48 8d bc 24 40 80 00 	lea    0x8040(%rsp),%rdi
  402734:	00 
  402735:	ba 00 20 00 00       	mov    $0x2000,%edx
  40273a:	e8 2b fa ff ff       	callq  40216a <rio_readlineb>
  40273f:	48 85 c0             	test   %rax,%rax
  402742:	7f 21                	jg     402765 <submitr+0x4df>
  402744:	be 30 33 40 00       	mov    $0x403330,%esi
  402749:	b9 3f 00 00 00       	mov    $0x3f,%ecx
  40274e:	4c 89 f7             	mov    %r14,%rdi
  402751:	f3 a4                	rep movsb %ds:(%rsi),%es:(%rdi)
  402753:	44 89 ef             	mov    %r13d,%edi
  402756:	e8 45 e4 ff ff       	callq  400ba0 <close@plt>
  40275b:	b8 ff ff ff ff       	mov    $0xffffffff,%eax
  402760:	e9 bf 00 00 00       	jmpq   402824 <submitr+0x59e>
  402765:	8b 94 24 3c 20 00 00 	mov    0x203c(%rsp),%edx
  40276c:	81 fa c8 00 00 00    	cmp    $0xc8,%edx
  402772:	74 29                	je     40279d <submitr+0x517>
  402774:	48 8d 4c 24 30       	lea    0x30(%rsp),%rcx
  402779:	be 70 33 40 00       	mov    $0x403370,%esi
  40277e:	4c 89 f7             	mov    %r14,%rdi
  402781:	b8 00 00 00 00       	mov    $0x0,%eax
  402786:	e8 f5 e4 ff ff       	callq  400c80 <sprintf@plt>
  40278b:	44 89 ef             	mov    %r13d,%edi
  40278e:	e8 0d e4 ff ff       	callq  400ba0 <close@plt>
  402793:	b8 ff ff ff ff       	mov    $0xffffffff,%eax
  402798:	e9 87 00 00 00       	jmpq   402824 <submitr+0x59e>
  40279d:	4c 89 fe             	mov    %r15,%rsi
  4027a0:	4c 89 f7             	mov    %r14,%rdi
  4027a3:	e8 68 e5 ff ff       	callq  400d10 <strcpy@plt>
  4027a8:	44 89 ef             	mov    %r13d,%edi
  4027ab:	e8 f0 e3 ff ff       	callq  400ba0 <close@plt>
  4027b0:	4c 89 f2             	mov    %r14,%rdx
  4027b3:	41 0f b6 06          	movzbl (%r14),%eax
  4027b7:	b9 c8 31 40 00       	mov    $0x4031c8,%ecx
  4027bc:	0f b6 19             	movzbl (%rcx),%ebx
  4027bf:	39 d8                	cmp    %ebx,%eax
  4027c1:	75 1e                	jne    4027e1 <submitr+0x55b>
  4027c3:	41 0f b6 5e 01       	movzbl 0x1(%r14),%ebx
  4027c8:	3a 59 01             	cmp    0x1(%rcx),%bl
  4027cb:	75 14                	jne    4027e1 <submitr+0x55b>
  4027cd:	41 0f b6 5e 02       	movzbl 0x2(%r14),%ebx
  4027d2:	3a 59 02             	cmp    0x2(%rcx),%bl
  4027d5:	75 0a                	jne    4027e1 <submitr+0x55b>
  4027d7:	41 0f b6 5e 03       	movzbl 0x3(%r14),%ebx
  4027dc:	3a 59 03             	cmp    0x3(%rcx),%bl
  4027df:	74 37                	je     402818 <submitr+0x592>
  4027e1:	4c 89 f6             	mov    %r14,%rsi
  4027e4:	bf cc 31 40 00       	mov    $0x4031cc,%edi
  4027e9:	b9 05 00 00 00       	mov    $0x5,%ecx
  4027ee:	f3 a6                	repz cmpsb %es:(%rdi),%ds:(%rsi)
  4027f0:	0f 97 c3             	seta   %bl
  4027f3:	0f 92 c1             	setb   %cl
  4027f6:	38 cb                	cmp    %cl,%bl
  4027f8:	74 1e                	je     402818 <submitr+0x592>
  4027fa:	b9 d1 31 40 00       	mov    $0x4031d1,%ecx
  4027ff:	0f b6 19             	movzbl (%rcx),%ebx
  402802:	39 d8                	cmp    %ebx,%eax
  402804:	75 19                	jne    40281f <submitr+0x599>
  402806:	0f b6 42 01          	movzbl 0x1(%rdx),%eax
  40280a:	3a 41 01             	cmp    0x1(%rcx),%al
  40280d:	75 10                	jne    40281f <submitr+0x599>
  40280f:	0f b6 42 02          	movzbl 0x2(%rdx),%eax
  402813:	3a 41 02             	cmp    0x2(%rcx),%al
  402816:	75 07                	jne    40281f <submitr+0x599>
  402818:	b8 00 00 00 00       	mov    $0x0,%eax
  40281d:	eb 05                	jmp    402824 <submitr+0x59e>
  40281f:	b8 ff ff ff ff       	mov    $0xffffffff,%eax
  402824:	48 81 c4 68 a0 00 00 	add    $0xa068,%rsp
  40282b:	5b                   	pop    %rbx
  40282c:	5d                   	pop    %rbp
  40282d:	41 5c                	pop    %r12
  40282f:	41 5d                	pop    %r13
  402831:	41 5e                	pop    %r14
  402833:	41 5f                	pop    %r15
  402835:	c3                   	retq   
  402836:	48 8d 9c 24 40 60 00 	lea    0x6040(%rsp),%rbx
  40283d:	00 
  40283e:	4d 89 f9             	mov    %r15,%r9
  402841:	4c 8d 84 24 40 40 00 	lea    0x4040(%rsp),%r8
  402848:	00 
  402849:	48 8b 4c 24 08       	mov    0x8(%rsp),%rcx
  40284e:	48 8b 54 24 10       	mov    0x10(%rsp),%rdx
  402853:	be a0 33 40 00       	mov    $0x4033a0,%esi
  402858:	48 89 df             	mov    %rbx,%rdi
  40285b:	b8 00 00 00 00       	mov    $0x0,%eax
  402860:	e8 1b e4 ff ff       	callq  400c80 <sprintf@plt>
  402865:	48 89 df             	mov    %rbx,%rdi
  402868:	b8 00 00 00 00       	mov    $0x0,%eax
  40286d:	48 c7 c1 ff ff ff ff 	mov    $0xffffffffffffffff,%rcx
  402874:	f2 ae                	repnz scas %es:(%rdi),%al
  402876:	48 f7 d1             	not    %rcx
  402879:	49 89 cc             	mov    %rcx,%r12
  40287c:	49 83 ec 01          	sub    $0x1,%r12
  402880:	0f 84 2f fd ff ff    	je     4025b5 <submitr+0x32f>
  402886:	4c 89 e3             	mov    %r12,%rbx
  402889:	48 8d ac 24 40 60 00 	lea    0x6040(%rsp),%rbp
  402890:	00 
  402891:	41 bf 00 00 00 00    	mov    $0x0,%r15d
  402897:	e9 ce fc ff ff       	jmpq   40256a <submitr+0x2e4>

000000000040289c <driver_post>:
  40289c:	53                   	push   %rbx
  40289d:	48 83 ec 10          	sub    $0x10,%rsp
  4028a1:	4c 89 cb             	mov    %r9,%rbx
  4028a4:	45 85 c0             	test   %r8d,%r8d
  4028a7:	74 22                	je     4028cb <driver_post+0x2f>
  4028a9:	48 89 ce             	mov    %rcx,%rsi
  4028ac:	bf d4 31 40 00       	mov    $0x4031d4,%edi
  4028b1:	b8 00 00 00 00       	mov    $0x0,%eax
  4028b6:	e8 c5 e2 ff ff       	callq  400b80 <printf@plt>
  4028bb:	66 c7 03 4f 4b       	movw   $0x4b4f,(%rbx)
  4028c0:	c6 43 02 00          	movb   $0x0,0x2(%rbx)
  4028c4:	b8 00 00 00 00       	mov    $0x0,%eax
  4028c9:	eb 39                	jmp    402904 <driver_post+0x68>
  4028cb:	48 85 ff             	test   %rdi,%rdi
  4028ce:	74 26                	je     4028f6 <driver_post+0x5a>
  4028d0:	80 3f 00             	cmpb   $0x0,(%rdi)
  4028d3:	74 21                	je     4028f6 <driver_post+0x5a>
  4028d5:	4c 89 0c 24          	mov    %r9,(%rsp)
  4028d9:	49 89 c9             	mov    %rcx,%r9
  4028dc:	49 89 d0             	mov    %rdx,%r8
  4028df:	48 89 f9             	mov    %rdi,%rcx
  4028e2:	48 89 f2             	mov    %rsi,%rdx
  4028e5:	be b1 36 00 00       	mov    $0x36b1,%esi
  4028ea:	bf 8b 2d 40 00       	mov    $0x402d8b,%edi
  4028ef:	e8 92 f9 ff ff       	callq  402286 <submitr>
  4028f4:	eb 0e                	jmp    402904 <driver_post+0x68>
  4028f6:	66 c7 03 4f 4b       	movw   $0x4b4f,(%rbx)
  4028fb:	c6 43 02 00          	movb   $0x0,0x2(%rbx)
  4028ff:	b8 00 00 00 00       	mov    $0x0,%eax
  402904:	48 83 c4 10          	add    $0x10,%rsp
  402908:	5b                   	pop    %rbx
  402909:	c3                   	retq   

000000000040290a <sigalrm_handler>:
  40290a:	48 83 ec 08          	sub    $0x8,%rsp
  40290e:	ba 00 00 00 00       	mov    $0x0,%edx
  402913:	be e0 33 40 00       	mov    $0x4033e0,%esi
  402918:	48 8b 3d 89 1d 20 00 	mov    0x201d89(%rip),%rdi        # 6046a8 <stderr@@GLIBC_2.2.5>
  40291f:	b8 00 00 00 00       	mov    $0x0,%eax
  402924:	e8 17 e4 ff ff       	callq  400d40 <fprintf@plt>
  402929:	bf 01 00 00 00       	mov    $0x1,%edi
  40292e:	e8 ad e2 ff ff       	callq  400be0 <exit@plt>
  402933:	90                   	nop

0000000000402934 <check>:
  402934:	89 f8                	mov    %edi,%eax
  402936:	c1 e8 1c             	shr    $0x1c,%eax
  402939:	85 c0                	test   %eax,%eax
  40293b:	74 27                	je     402964 <check+0x30>
  40293d:	40 80 ff 0a          	cmp    $0xa,%dil
  402941:	74 21                	je     402964 <check+0x30>
  402943:	48 89 fa             	mov    %rdi,%rdx
  402946:	0f b6 c6             	movzbl %dh,%eax
  402949:	83 f8 0a             	cmp    $0xa,%eax
  40294c:	74 16                	je     402964 <check+0x30>
  40294e:	89 f8                	mov    %edi,%eax
  402950:	c1 e8 10             	shr    $0x10,%eax
  402953:	3c 0a                	cmp    $0xa,%al
  402955:	74 0d                	je     402964 <check+0x30>
  402957:	c1 ef 18             	shr    $0x18,%edi
  40295a:	83 ff 0a             	cmp    $0xa,%edi
  40295d:	0f 95 c0             	setne  %al
  402960:	0f b6 c0             	movzbl %al,%eax
  402963:	c3                   	retq   
  402964:	b8 00 00 00 00       	mov    $0x0,%eax
  402969:	c3                   	retq   

000000000040296a <gencookie>:
  40296a:	53                   	push   %rbx
  40296b:	83 c7 01             	add    $0x1,%edi
  40296e:	e8 dd e2 ff ff       	callq  400c50 <srandom@plt>
  402973:	e8 b8 e3 ff ff       	callq  400d30 <random@plt>
  402978:	89 c3                	mov    %eax,%ebx
  40297a:	89 c7                	mov    %eax,%edi
  40297c:	e8 b3 ff ff ff       	callq  402934 <check>
  402981:	85 c0                	test   %eax,%eax
  402983:	74 ee                	je     402973 <gencookie+0x9>
  402985:	89 d8                	mov    %ebx,%eax
  402987:	5b                   	pop    %rbx
  402988:	c3                   	retq   
  402989:	90                   	nop
  40298a:	90                   	nop
  40298b:	90                   	nop
  40298c:	90                   	nop
  40298d:	90                   	nop
  40298e:	90                   	nop
  40298f:	90                   	nop

0000000000402990 <__libc_csu_fini>:
  402990:	f3 c3                	repz retq 
  402992:	66 66 66 66 66 2e 0f 	data32 data32 data32 data32 nopw %cs:0x0(%rax,%rax,1)
  402999:	1f 84 00 00 00 00 00 

00000000004029a0 <__libc_csu_init>:
  4029a0:	48 89 6c 24 d8       	mov    %rbp,-0x28(%rsp)
  4029a5:	4c 89 64 24 e0       	mov    %r12,-0x20(%rsp)
  4029aa:	48 8d 2d 4f 16 20 00 	lea    0x20164f(%rip),%rbp        # 604000 <__CTOR_LIST__>
  4029b1:	4c 8d 25 48 16 20 00 	lea    0x201648(%rip),%r12        # 604000 <__CTOR_LIST__>
  4029b8:	4c 89 6c 24 e8       	mov    %r13,-0x18(%rsp)
  4029bd:	4c 89 74 24 f0       	mov    %r14,-0x10(%rsp)
  4029c2:	4c 89 7c 24 f8       	mov    %r15,-0x8(%rsp)
  4029c7:	48 89 5c 24 d0       	mov    %rbx,-0x30(%rsp)
  4029cc:	48 83 ec 38          	sub    $0x38,%rsp
  4029d0:	4c 29 e5             	sub    %r12,%rbp
  4029d3:	41 89 fd             	mov    %edi,%r13d
  4029d6:	49 89 f6             	mov    %rsi,%r14
  4029d9:	48 c1 fd 03          	sar    $0x3,%rbp
  4029dd:	49 89 d7             	mov    %rdx,%r15
  4029e0:	e8 73 e1 ff ff       	callq  400b58 <_init>
  4029e5:	48 85 ed             	test   %rbp,%rbp
  4029e8:	74 1c                	je     402a06 <__libc_csu_init+0x66>
  4029ea:	31 db                	xor    %ebx,%ebx
  4029ec:	0f 1f 40 00          	nopl   0x0(%rax)
  4029f0:	4c 89 fa             	mov    %r15,%rdx
  4029f3:	4c 89 f6             	mov    %r14,%rsi
  4029f6:	44 89 ef             	mov    %r13d,%edi
  4029f9:	41 ff 14 dc          	callq  *(%r12,%rbx,8)
  4029fd:	48 83 c3 01          	add    $0x1,%rbx
  402a01:	48 39 eb             	cmp    %rbp,%rbx
  402a04:	72 ea                	jb     4029f0 <__libc_csu_init+0x50>
  402a06:	48 8b 5c 24 08       	mov    0x8(%rsp),%rbx
  402a0b:	48 8b 6c 24 10       	mov    0x10(%rsp),%rbp
  402a10:	4c 8b 64 24 18       	mov    0x18(%rsp),%r12
  402a15:	4c 8b 6c 24 20       	mov    0x20(%rsp),%r13
  402a1a:	4c 8b 74 24 28       	mov    0x28(%rsp),%r14
  402a1f:	4c 8b 7c 24 30       	mov    0x30(%rsp),%r15
  402a24:	48 83 c4 38          	add    $0x38,%rsp
  402a28:	c3                   	retq   
  402a29:	90                   	nop
  402a2a:	90                   	nop
  402a2b:	90                   	nop
  402a2c:	90                   	nop
  402a2d:	90                   	nop
  402a2e:	90                   	nop
  402a2f:	90                   	nop

0000000000402a30 <__do_global_ctors_aux>:
  402a30:	55                   	push   %rbp
  402a31:	48 89 e5             	mov    %rsp,%rbp
  402a34:	53                   	push   %rbx
  402a35:	48 83 ec 08          	sub    $0x8,%rsp
  402a39:	48 8b 05 c0 15 20 00 	mov    0x2015c0(%rip),%rax        # 604000 <__CTOR_LIST__>
  402a40:	48 83 f8 ff          	cmp    $0xffffffffffffffff,%rax
  402a44:	74 19                	je     402a5f <__do_global_ctors_aux+0x2f>
  402a46:	bb 00 40 60 00       	mov    $0x604000,%ebx
  402a4b:	0f 1f 44 00 00       	nopl   0x0(%rax,%rax,1)
  402a50:	48 83 eb 08          	sub    $0x8,%rbx
  402a54:	ff d0                	callq  *%rax
  402a56:	48 8b 03             	mov    (%rbx),%rax
  402a59:	48 83 f8 ff          	cmp    $0xffffffffffffffff,%rax
  402a5d:	75 f1                	jne    402a50 <__do_global_ctors_aux+0x20>
  402a5f:	48 83 c4 08          	add    $0x8,%rsp
  402a63:	5b                   	pop    %rbx
  402a64:	c9                   	leaveq 
  402a65:	c3                   	retq   
  402a66:	90                   	nop
  402a67:	90                   	nop

Disassembly of section .fini:

0000000000402a68 <_fini>:
  402a68:	48 83 ec 08          	sub    $0x8,%rsp
  402a6c:	e8 6f e3 ff ff       	callq  400de0 <__do_global_dtors_aux>
  402a71:	48 83 c4 08          	add    $0x8,%rsp
  402a75:	c3                   	retq   
